ccollections
defaultdict
p1
(crecycledcode
PhrasePairTableEntry
p2
tRp3
(S'natuurrampen getroffen .'
S'of natural disasters that truly were dreadful .'
tp4
ccopy_reg
_reconstructor
p5
(g2
c__builtin__
object
p6
NtRp7
(dp8
S'dictEnLex'
p9
g1
(c__builtin__
int
p10
tRp11
((S'NULL'
p12
(I1
tt(I0
(S'NULL'
tp13
t(I1
(I0
tt(I2
(I0
tt(I3
g13
t(I4
(I-3
tt(I5
(I-4
tt(I6
(I-1
tt(I7
(I2
tttp14
I1
ssS'dictNlLex'
p15
g1
(g10
tRp16
((g12
(I0
I3
I4
I5
I6
tt(I0
(I1
I2
tt(I1
g13
t(I2
(I7
tttp17
I1
ssS'phrasePairCount'
p18
I1
sbs(S'een gelukkig nieuwjaar'
p19
S'a happy new year'
p20
tp21
g5
(g2
g6
NtRp22
(dp23
g9
g1
(g10
tRp24
((I0
(I0
tt(I1
(I1
I2
tt(I2
(I2
tt(I3
(I2
tttp25
I1
ssg15
g1
(g10
tRp26
((I0
(I0
tt(I1
(I1
tt(I2
(I1
I2
I3
tttp27
I1
ssg18
I1
sbs(S'door'
p28
S'suffered'
p29
tp30
g5
(g2
g6
NtRp31
(dp32
g9
g1
(g10
tRp33
((I0
(I0
tttp34
I1
ssg15
g1
(g10
tRp35
((I0
(I0
tttp36
I1
ssg18
I1
sbs(S'een goede'
p37
S'a pleasant'
p38
tp39
g5
(g2
g6
NtRp40
(dp41
g9
g1
(g10
tRp42
((I0
(I0
tt(I1
(I1
tttp43
I1
ssg15
g1
(g10
tRp44
((I0
(I0
tt(I1
(I1
tttp45
I1
ssg18
I1
sbs(S'vrijdag 17 december werd'
S'friday 17 december 1999'
tp46
g5
(g2
g6
NtRp47
(dp48
g9
g1
(g10
tRp49
((g12
(I3
tt(I0
(I0
tt(I1
(I1
tt(I2
(I2
tt(I3
g13
ttp50
I1
ssg15
g1
(g10
tRp51
((g12
(I3
tt(I0
(I0
tt(I1
(I1
tt(I2
(I2
tt(I3
g13
ttp52
I1
ssg18
I1
sbs(S'doel hiermee met name'
p53
S'all the victims concerned , particularly'
tp54
g5
(g2
g6
NtRp55
(dp56
g9
g1
(g10
tRp57
((g12
(I0
tt(I0
(I1
tt(I1
(I-4
tt(I2
(I-3
tt(I3
g13
t(I4
(I-2
tt(I5
(I2
I3
tttp58
I1
ssg15
g1
(g10
tRp59
((g12
(I1
I2
I3
I4
tt(I0
g13
t(I1
(I0
tt(I2
(I5
tt(I3
(I5
tttp60
I1
ssg18
I1
sbs(S'ik graag'
S', i'
tp61
g5
(g2
g6
NtRp62
(dp63
g9
g1
(g10
tRp64
((g12
(I1
tt(I0
g13
t(I1
(I0
tttp65
I1
ssg15
g1
(g10
tRp66
((g12
(I0
tt(I0
(I1
tt(I1
g13
ttp67
I1
ssg18
I1
sbs(S'de zitting van het europees'
p68
S'the session of the european'
p69
tp70
g5
(g2
g6
NtRp71
(dp72
g9
g1
(g10
tRp73
((I0
(I0
tt(I1
(I1
tt(I2
(I2
tt(I3
(I3
tt(I4
(I4
tttp74
I1
ssg15
g1
(g10
tRp75
((I0
(I0
tt(I1
(I1
tt(I2
(I2
tt(I3
(I3
tt(I4
(I4
tttp76
I1
ssg18
I1
sbs(S'u heeft aangegeven'
p77
S'you have requested'
p78
tp79
g5
(g2
g6
NtRp80
(dp81
g9
g1
(g10
tRp82
((I0
(I0
tt(I1
(I1
tt(I2
(I2
tttp83
I1
ssg15
g1
(g10
tRp84
((I0
(I0
tt(I1
(I1
tt(I2
(I2
tttp85
I1
ssg18
I1
sbs(S'dat u'
S'in the'
tp86
g5
(g2
g6
NtRp87
(dp88
g9
g1
(g10
tRp89
((g12
(I1
tt(I0
(I0
tt(I1
g13
ttp90
I1
ssg15
g1
(g10
tRp91
((g12
(I1
tt(I0
(I0
tt(I1
g13
ttp92
I1
ssg18
I1
sbs(S'van een'
p93
S'in a'
p94
tp95
g5
(g2
g6
NtRp96
(dp97
g9
g1
(g10
tRp98
((I0
(I0
tt(I1
(I1
tttp99
I1
ssg15
g1
(g10
tRp100
((I0
(I0
tt(I1
(I1
tttp101
I1
ssg18
I1
sbs(S', die op vrijdag 17 december'
p102
S'adjourned on friday 17 december'
p103
tp104
g5
(g2
g6
NtRp105
(dp106
g9
g1
(g10
tRp107
((I0
(I0
I1
tt(I1
(I2
tt(I2
(I3
tt(I3
(I4
tt(I4
(I5
tttp108
I1
ssg15
g1
(g10
tRp109
((I0
(I0
tt(I1
(I0
tt(I2
(I1
tt(I3
(I2
tt(I4
(I3
tt(I5
(I4
tttp110
I1
ssg18
I1
sbs(S'van de slachtoffers'
S'of all the victims concerned'
p111
tp112
g5
(g2
g6
NtRp113
(dp114
g9
g1
(g10
tRp115
((I0
(I0
tt(I1
(I6
tt(I2
(I1
tt(I3
(I2
tt(I4
g13
ttp116
I1
ssg15
g1
(g10
tRp117
((g12
(I1
I4
tt(I0
(I0
tt(I1
(I2
tt(I2
(I3
tttp118
I1
ssg18
I1
sbs(S'hoop dat u'
p119
S'hope that you'
p120
tp121
g5
(g2
g6
NtRp122
(dp123
g9
g1
(g10
tRp124
((I0
(I0
tt(I1
(I1
tt(I2
(I2
tttp125
I1
ssg15
g1
(g10
tRp126
((I0
(I0
tt(I1
(I1
tt(I2
(I2
tttp127
I1
ssg18
I1
sbs(S"collega ' s"
p128
S'members have'
p129
tp130
g5
(g2
g6
NtRp131
(dp132
g9
g1
(g10
tRp133
((I0
(I0
I1
I2
tt(I1
(I2
tttp134
I1
ssg15
g1
(g10
tRp135
((I0
(I0
tt(I1
(I0
tt(I2
(I0
I1
tttp136
I1
ssg18
I1
sbs(S', die op vrijdag 17'
p137
S'adjourned on friday 17'
p138
tp139
g5
(g2
g6
NtRp140
(dp141
g9
g1
(g10
tRp142
((I0
(I0
I1
tt(I1
(I2
tt(I2
(I3
tt(I3
(I4
tttp143
I1
ssg15
g1
(g10
tRp144
((I0
(I0
tt(I1
(I0
tt(I2
(I1
tt(I3
(I2
tt(I4
(I3
tttp145
I1
ssg18
I1
sbs(S'heeft kunnen constateren , is de grote'
p146
S'will have seen , the dreaded'
p147
tp148
g5
(g2
g6
NtRp149
(dp150
g9
g1
(g10
tRp151
((I0
(I1
tt(I1
(I0
I2
tt(I2
(I1
I2
tt(I3
(I3
I4
tt(I4
(I5
tt(I5
(I6
tttp152
I1
ssg15
g1
(g10
tRp153
((I0
(I1
tt(I1
(I0
I2
tt(I2
(I1
I2
tt(I3
(I3
tt(I4
(I3
tt(I5
(I4
tt(I6
(I5
tttp154
I1
ssg18
I1
sbs(S'dat u'
p155
S'that you'
p156
tp157
g5
(g2
g6
NtRp158
(dp159
g9
g1
(g10
tRp160
((I0
(I0
tt(I1
(I1
tttp161
I1
ssg15
g1
(g10
tRp162
((I0
(I0
tt(I1
(I1
tttp163
I1
ssg18
I1
sbs(S'deze minuut'
S', then , for this minute'
p164
tp165
g5
(g2
g6
NtRp166
(dp167
g9
g1
(g10
tRp168
((I0
g13
t(I1
g13
t(I2
g13
t(I3
g13
t(I4
(I0
tt(I5
(I1
tttp169
I1
ssg15
g1
(g10
tRp170
((g12
(I0
I1
I2
I3
tt(I0
(I4
tt(I1
(I5
tttp171
I1
ssg18
I1
sbs(S'ik wil een motie van'
p172
S'on a point of'
p173
tp174
g5
(g2
g6
NtRp175
(dp176
g9
g1
(g10
tRp177
((I0
(I0
tt(I1
(I2
tt(I2
(I1
I3
tt(I3
(I4
tttp178
I1
ssg15
g1
(g10
tRp179
((I0
(I0
tt(I1
(I2
tt(I2
(I1
tt(I3
(I2
tt(I4
(I3
tttp180
I1
ssg18
I1
sbs(S'het parlement neemt staande een'
p181
S'the house rose and observed a'
p182
tp183
g5
(g2
g6
NtRp184
(dp185
g9
g1
(g10
tRp186
((I0
(I0
tt(I1
(I1
tt(I2
(I2
I3
tt(I3
g13
t(I4
(I3
tt(I5
(I4
tttp187
I1
ssg15
g1
(g10
tRp188
((g12
(I3
tt(I0
(I0
tt(I1
(I1
tt(I2
(I2
tt(I3
(I2
I4
tt(I4
(I5
tttp189
I1
ssg18
I1
sbs(S', die op vrijdag 17 december'
S'adjourned on friday 17 december 1999'
p190
tp191
g5
(g2
g6
NtRp192
(dp193
g9
g1
(g10
tRp194
((I0
(I0
I1
tt(I1
(I2
tt(I2
(I3
tt(I3
(I4
tt(I4
(I5
tt(I5
g13
ttp195
I1
ssg15
g1
(g10
tRp196
((g12
(I5
tt(I0
(I0
tt(I1
(I0
tt(I2
(I1
tt(I3
(I2
tt(I4
(I3
tt(I5
(I4
tttp197
I1
ssg18
I1
sbs(S'verschillende'
p198
S'various'
p199
tp200
g5
(g2
g6
NtRp201
(dp202
g9
g1
(g10
tRp203
((I0
(I0
tttp204
I1
ssg15
g1
(g10
tRp205
((I0
(I0
tttp206
I1
ssg18
I1
sbs(S'europees parlement , die op vrijdag 17'
p207
S'european parliament adjourned on friday 17'
p208
tp209
g5
(g2
g6
NtRp210
(dp211
g9
g1
(g10
tRp212
((I0
(I0
tt(I1
(I1
tt(I2
(I2
I3
tt(I3
(I4
tt(I4
(I5
tt(I5
(I6
tttp213
I1
ssg15
g1
(g10
tRp214
((I0
(I0
tt(I1
(I1
tt(I2
(I2
tt(I3
(I2
tt(I4
(I3
tt(I5
(I4
tt(I6
(I5
tttp215
I1
ssg18
I1
sbs(S'de burgers'
S'still the people'
p216
tp217
g5
(g2
g6
NtRp218
(dp219
g9
g1
(g10
tRp220
((I0
g13
t(I1
(I0
tt(I2
(I1
tttp221
I1
ssg15
g1
(g10
tRp222
((g12
(I0
tt(I0
(I1
tt(I1
(I2
tttp223
I1
ssg18
I1
sbs(S'slachtoffers'
p224
S'victims concerned'
p225
tp226
g5
(g2
g6
NtRp227
(dp228
g9
g1
(g10
tRp229
((I0
(I0
tt(I1
g13
ttp230
I1
ssg15
g1
(g10
tRp231
((g12
(I1
tt(I0
(I0
tttp232
I1
ssg18
I1
sbs(S'17 december werd onderbroken'
p233
S'17 december'
tp234
g5
(g2
g6
NtRp235
(dp236
g9
g1
(g10
tRp237
((g12
(I2
I3
tt(I0
(I0
tt(I1
(I1
tttp238
I1
ssg15
g1
(g10
tRp239
((I0
(I0
tt(I1
(I1
tt(I2
g13
t(I3
g13
ttp240
I1
ssg18
I1
sbs(S'onze'
p241
S'a series of'
p242
tp243
g5
(g2
g6
NtRp244
(dp245
g9
g1
(g10
tRp246
((I0
(I0
tt(I1
g13
t(I2
g13
ttp247
I1
ssg15
g1
(g10
tRp248
((g12
(I1
I2
tt(I0
(I0
tttp249
I1
ssg18
I1
sbs(S'zoals u heeft kunnen constateren , is'
S', as you will have seen ,'
p250
tp251
g5
(g2
g6
NtRp252
(dp253
g9
g1
(g10
tRp254
((I0
g13
t(I1
(I0
tt(I2
(I1
tt(I3
(I3
tt(I4
(I2
I4
tt(I5
(I3
I4
tt(I6
(I5
I6
tttp255
I1
ssg15
g1
(g10
tRp256
((g12
(I0
tt(I0
(I1
tt(I1
(I2
tt(I2
(I4
tt(I3
(I3
I5
tt(I4
(I4
I5
tt(I5
(I6
tt(I6
(I6
tttp257
I1
ssg18
I1
sbs(S', ik wil een motie'
p258
S', on a point'
p259
tp260
g5
(g2
g6
NtRp261
(dp262
g9
g1
(g10
tRp263
((I0
(I0
tt(I1
(I1
tt(I2
(I3
tt(I3
(I2
I4
tttp264
I1
ssg15
g1
(g10
tRp265
((I0
(I0
tt(I1
(I1
tt(I2
(I3
tt(I3
(I2
tt(I4
(I3
tttp266
I1
ssg18
I1
sbs(S'heeft kunnen constateren , is de'
p267
S'will have seen , the'
p268
tp269
g5
(g2
g6
NtRp270
(dp271
g9
g1
(g10
tRp272
((I0
(I1
tt(I1
(I0
I2
tt(I2
(I1
I2
tt(I3
(I3
I4
tt(I4
(I5
tttp273
I1
ssg15
g1
(g10
tRp274
((I0
(I1
tt(I1
(I0
I2
tt(I2
(I1
I2
tt(I3
(I3
tt(I4
(I3
tt(I5
(I4
tttp275
I1
ssg18
I1
sbs(S', ik wil een motie van orde'
p276
S', on a point of order'
p277
tp278
g5
(g2
g6
NtRp279
(dp280
g9
g1
(g10
tRp281
((I0
(I0
tt(I1
(I1
tt(I2
(I3
tt(I3
(I2
I4
tt(I4
(I5
tt(I5
(I6
tttp282
I1
ssg15
g1
(g10
tRp283
((I0
(I0
tt(I1
(I1
tt(I2
(I3
tt(I3
(I2
tt(I4
(I3
tt(I5
(I4
tt(I6
(I5
tttp284
I1
ssg18
I1
sbs(S'verklaar de zitting'
p285
S'declare resumed the session'
p286
tp287
g5
(g2
g6
NtRp288
(dp289
g9
g1
(g10
tRp290
((I0
(I0
tt(I1
(I0
tt(I2
(I1
tt(I3
(I2
tttp291
I1
ssg15
g1
(g10
tRp292
((I0
(I0
I1
tt(I1
(I2
tt(I2
(I3
tttp293
I1
ssg18
I1
sbs(S'verzoek van een'
S', as a number of members have requested'
p294
tp295
g5
(g2
g6
NtRp296
(dp297
g9
g1
(g10
tRp298
((g12
(I1
tt(I0
g13
t(I1
g13
t(I2
(I2
tt(I3
(I3
tt(I4
(I3
tt(I5
(I4
I5
I6
tt(I6
(I6
tt(I7
(I0
tttp299
I1
ssg15
g1
(g10
tRp300
((g12
(I0
I1
I3
I4
I5
I6
tt(I0
(I7
tt(I1
g13
t(I2
(I2
tttp301
I1
ssg18
I1
sbs(S'europees parlement'
p302
S'european parliament'
p303
tp304
g5
(g2
g6
NtRp305
(dp306
g9
g1
(g10
tRp307
((I0
(I0
tt(I1
(I1
tttp308
I1
ssg15
g1
(g10
tRp309
((I0
(I0
tt(I1
(I1
tttp310
I1
ssg18
I1
sbs(S'de burgers van'
p311
S'the people in'
p312
tp313
g5
(g2
g6
NtRp314
(dp315
g9
g1
(g10
tRp316
((I0
(I0
tt(I1
(I1
tt(I2
(I2
tttp317
I1
ssg15
g1
(g10
tRp318
((I0
(I0
tt(I1
(I1
tt(I2
(I2
tttp319
I1
ssg18
I1
sbs(S'europees'
p320
S'european'
p321
tp322
g5
(g2
g6
NtRp323
(dp324
g9
g1
(g10
tRp325
((I0
(I0
tttp326
I1
ssg15
g1
(g10
tRp327
((I0
(I0
tttp328
I1
ssg18
I1
sbs(S'ik graag'
S'meantime , i'
tp329
g5
(g2
g6
NtRp330
(dp331
g9
g1
(g10
tRp332
((g12
(I1
tt(I0
g13
t(I1
g13
t(I2
(I0
tttp333
I1
ssg15
g1
(g10
tRp334
((g12
(I0
I1
tt(I0
(I2
tt(I1
g13
ttp335
I1
ssg18
I1
sbs(S'heeft kunnen constateren'
p336
S'will have seen'
p337
tp338
g5
(g2
g6
NtRp339
(dp340
g9
g1
(g10
tRp341
((I0
(I1
tt(I1
(I0
I2
tt(I2
(I1
I2
tttp342
I1
ssg15
g1
(g10
tRp343
((I0
(I1
tt(I1
(I0
I2
tt(I2
(I1
I2
tttp344
I1
ssg18
I1
sbs(S'zitting van het europees parlement , die'
p345
S'session of the european parliament adjourned'
p346
tp347
g5
(g2
g6
NtRp348
(dp349
g9
g1
(g10
tRp350
((I0
(I0
tt(I1
(I1
tt(I2
(I2
tt(I3
(I3
tt(I4
(I4
tt(I5
(I5
I6
tttp351
I1
ssg15
g1
(g10
tRp352
((I0
(I0
tt(I1
(I1
tt(I2
(I2
tt(I3
(I3
tt(I4
(I4
tt(I5
(I5
tt(I6
(I5
tttp353
I1
ssg18
I1
sbs(S'daarentegen'
p354
S'truly'
p355
tp356
g5
(g2
g6
NtRp357
(dp358
g9
g1
(g10
tRp359
((I0
(I0
tttp360
I1
ssg15
g1
(g10
tRp361
((I0
(I0
tttp362
I1
ssg18
I1
sbs(S'nu wil ik'
S'meantime , i should like to'
tp363
g5
(g2
g6
NtRp364
(dp365
g9
g1
(g10
tRp366
((g12
(I0
tt(I0
g13
t(I1
g13
t(I2
(I2
tt(I3
(I1
tt(I4
(I1
tt(I5
(I1
tttp367
I1
ssg15
g1
(g10
tRp368
((g12
(I0
I1
tt(I0
g13
t(I1
(I3
I4
I5
tt(I2
(I2
tttp369
I1
ssg18
I1
sbs(S'aantal van onze'
S'number of countries suffered a series'
p370
tp371
g5
(g2
g6
NtRp372
(dp373
g9
g1
(g10
tRp374
((I0
(I0
tt(I1
(I0
I1
tt(I2
(I3
tt(I3
(I6
tt(I4
(I2
tt(I5
g13
ttp375
I1
ssg15
g1
(g10
tRp376
((g12
(I2
I3
I5
tt(I0
(I0
I1
tt(I1
(I1
tt(I2
(I4
tttp377
I1
ssg18
I1
sbs(S'de'
S'still the'
p378
tp379
g5
(g2
g6
NtRp380
(dp381
g9
g1
(g10
tRp382
((I0
g13
t(I1
(I0
tttp383
I1
ssg15
g1
(g10
tRp384
((g12
(I0
tt(I0
(I1
tttp385
I1
ssg18
I1
sbs(S'europees parlement , die op vrijdag'
p386
S'european parliament adjourned on friday'
p387
tp388
g5
(g2
g6
NtRp389
(dp390
g9
g1
(g10
tRp391
((I0
(I0
tt(I1
(I1
tt(I2
(I2
I3
tt(I3
(I4
tt(I4
(I5
tttp392
I1
ssg15
g1
(g10
tRp393
((I0
(I0
tt(I1
(I1
tt(I2
(I2
tt(I3
(I2
tt(I4
(I3
tt(I5
(I4
tttp394
I1
ssg18
I1
sbs(S'van orde'
p395
S'of order'
p396
tp397
g5
(g2
g6
NtRp398
(dp399
g9
g1
(g10
tRp400
((I0
(I0
tt(I1
(I1
tttp401
I1
ssg15
g1
(g10
tRp402
((I0
(I0
tt(I1
(I1
tttp403
I1
ssg18
I1
sbs(S'u een goede vakantie heeft gehad .'
p404
S'you enjoyed a pleasant festive period .'
p405
tp406
g5
(g2
g6
NtRp407
(dp408
g9
g1
(g10
tRp409
((I0
(I0
tt(I1
g13
t(I2
(I1
tt(I3
(I2
tt(I4
(I3
I4
I5
tt(I5
g13
t(I6
(I6
tttp410
I1
ssg15
g1
(g10
tRp411
((g12
(I1
I5
tt(I0
(I0
tt(I1
(I2
tt(I2
(I3
tt(I3
(I4
tt(I4
(I4
tt(I5
(I4
tt(I6
(I6
tttp412
I1
ssg18
I1
sbs(S'ik wil u vragen'
S'please rise , then ,'
p413
tp414
g5
(g2
g6
NtRp415
(dp416
g9
g1
(g10
tRp417
((I0
(I0
I1
I2
I3
tt(I1
g13
t(I2
g13
t(I3
g13
t(I4
g13
ttp418
I1
ssg15
g1
(g10
tRp419
((g12
(I1
I2
I3
I4
tt(I0
(I0
tt(I1
(I0
tt(I2
(I0
tt(I3
(I0
tttp420
I1
ssg18
I1
sbs(S'ik'
p421
S'meantime , i'
p422
tp423
g5
(g2
g6
NtRp424
(dp425
g9
g1
(g10
tRp426
((I0
g13
t(I1
g13
t(I2
(I0
tttp427
I1
ssg15
g1
(g10
tRp428
((g12
(I0
I1
tt(I0
(I2
tttp429
I1
ssg18
I1
sbs(S'hoop dat u'
S'the hope that you'
p430
tp431
g5
(g2
g6
NtRp432
(dp433
g9
g1
(g10
tRp434
((I0
g13
t(I1
(I0
tt(I2
(I1
tt(I3
(I2
tttp435
I1
ssg15
g1
(g10
tRp436
((g12
(I0
tt(I0
(I1
tt(I1
(I2
tt(I2
(I3
tttp437
I1
ssg18
I1
sbs(S'de slachtoffers . ik'
p438
S'the victims concerned ,'
tp439
g5
(g2
g6
NtRp440
(dp441
g9
g1
(g10
tRp442
((g12
(I3
tt(I0
(I0
tt(I1
(I1
tt(I2
g13
t(I3
(I2
tttp443
I1
ssg15
g1
(g10
tRp444
((g12
(I2
tt(I0
(I0
tt(I1
(I1
tt(I2
(I3
tt(I3
g13
ttp445
I1
ssg18
I1
sbs(S'verzoek van een'
p446
S'a number of members have requested'
p447
tp448
g5
(g2
g6
NtRp449
(dp450
g9
g1
(g10
tRp451
((g12
(I1
tt(I0
(I2
tt(I1
(I3
tt(I2
(I3
tt(I3
(I4
I5
I6
tt(I4
(I6
tt(I5
(I0
tttp452
I1
ssg15
g1
(g10
tRp453
((g12
(I1
I2
I3
I4
tt(I0
(I5
tt(I1
g13
t(I2
(I0
tttp454
I1
ssg18
I1
sbs(S'dat'
p455
S'that'
p456
tp457
g5
(g2
g6
NtRp458
(dp459
g9
g1
(g10
tRp460
((I0
(I0
tttp461
I1
ssg15
g1
(g10
tRp462
((I0
(I0
tttp463
I1
ssg18
I1
sbs(S'dat u'
S'in'
p464
tp465
g5
(g2
g6
NtRp466
(dp467
g9
g1
(g10
tRp468
((g12
(I1
tt(I0
(I0
tttp469
I1
ssg15
g1
(g10
tRp470
((I0
(I0
tt(I1
g13
ttp471
I1
ssg18
I1
sbs(S'zoals u heeft kunnen constateren , is'
p472
S'as you will have seen ,'
p473
tp474
g5
(g2
g6
NtRp475
(dp476
g9
g1
(g10
tRp477
((I0
(I0
tt(I1
(I1
tt(I2
(I3
tt(I3
(I2
I4
tt(I4
(I3
I4
tt(I5
(I5
I6
tttp478
I1
ssg15
g1
(g10
tRp479
((I0
(I0
tt(I1
(I1
tt(I2
(I3
tt(I3
(I2
I4
tt(I4
(I3
I4
tt(I5
(I5
tt(I6
(I5
tttp480
I1
ssg18
I1
sbs(S'neemt staande een'
p481
S'rose and observed a'
p482
tp483
g5
(g2
g6
NtRp484
(dp485
g9
g1
(g10
tRp486
((I0
(I0
I1
tt(I1
g13
t(I2
(I1
tt(I3
(I2
tttp487
I1
ssg15
g1
(g10
tRp488
((g12
(I1
tt(I0
(I0
tt(I1
(I0
I2
tt(I2
(I3
tttp489
I1
ssg18
I1
sbs(S'van een aantal van'
p490
S'in a number of'
p491
tp492
g5
(g2
g6
NtRp493
(dp494
g9
g1
(g10
tRp495
((I0
(I0
tt(I1
(I1
tt(I2
(I2
tt(I3
(I2
I3
tttp496
I1
ssg15
g1
(g10
tRp497
((I0
(I0
tt(I1
(I1
tt(I2
(I2
I3
tt(I3
(I3
tttp498
I1
ssg18
I1
sbs(S'orde stellen .'
p499
S'order .'
p500
tp501
g5
(g2
g6
NtRp502
(dp503
g9
g1
(g10
tRp504
((g12
(I1
tt(I0
(I0
tt(I1
(I2
tttp505
I1
ssg15
g1
(g10
tRp506
((I0
(I0
tt(I1
g13
t(I2
(I1
tttp507
I1
ssg18
I1
sbs(S'natuurrampen'
p508
S'series of natural disasters that'
p509
tp510
g5
(g2
g6
NtRp511
(dp512
g9
g1
(g10
tRp513
((I0
g13
t(I1
g13
t(I2
(I0
tt(I3
(I0
tt(I4
g13
ttp514
I1
ssg15
g1
(g10
tRp515
((g12
(I0
I1
I4
tt(I0
(I2
I3
tttp516
I1
ssg18
I1
sbs(S'u allen een gelukkig nieuwjaar en'
S'you a happy new year in the'
p517
tp518
g5
(g2
g6
NtRp519
(dp520
g9
g1
(g10
tRp521
((I0
(I0
I1
tt(I1
(I2
tt(I2
(I3
I4
tt(I3
(I4
tt(I4
(I4
tt(I5
(I5
tt(I6
g13
ttp522
I1
ssg15
g1
(g10
tRp523
((g12
(I6
tt(I0
(I0
tt(I1
(I0
tt(I2
(I1
tt(I3
(I2
tt(I4
(I2
I3
I4
tt(I5
(I5
tttp524
I1
ssg18
I1
sbs(S'17 december werd onderbroken ,'
p525
S'17 december 1999 ,'
p526
tp527
g5
(g2
g6
NtRp528
(dp529
g9
g1
(g10
tRp530
((g12
(I2
I3
tt(I0
(I0
tt(I1
(I1
tt(I2
g13
t(I3
(I4
tttp531
I1
ssg15
g1
(g10
tRp532
((g12
(I2
tt(I0
(I0
tt(I1
(I1
tt(I2
g13
t(I3
g13
t(I4
(I3
tttp533
I1
ssg18
I1
sbs(S'zitting van'
p534
S'session of'
p535
tp536
g5
(g2
g6
NtRp537
(dp538
g9
g1
(g10
tRp539
((I0
(I0
tt(I1
(I1
tttp540
I1
ssg15
g1
(g10
tRp541
((I0
(I0
tt(I1
(I1
tttp542
I1
ssg18
I1
sbs(S'de zitting van het'
p543
S'the session of the'
p544
tp545
g5
(g2
g6
NtRp546
(dp547
g9
g1
(g10
tRp548
((I0
(I0
tt(I1
(I1
tt(I2
(I2
tt(I3
(I3
tttp549
I1
ssg15
g1
(g10
tRp550
((I0
(I0
tt(I1
(I1
tt(I2
(I2
tt(I3
(I3
tttp551
I1
ssg18
I1
sbs(S'het europees parlement , die op vrijdag'
p552
S'the european parliament adjourned on friday'
p553
tp554
g5
(g2
g6
NtRp555
(dp556
g9
g1
(g10
tRp557
((I0
(I0
tt(I1
(I1
tt(I2
(I2
tt(I3
(I3
I4
tt(I4
(I5
tt(I5
(I6
tttp558
I1
ssg15
g1
(g10
tRp559
((I0
(I0
tt(I1
(I1
tt(I2
(I2
tt(I3
(I3
tt(I4
(I3
tt(I5
(I4
tt(I6
(I5
tttp560
I1
ssg18
I1
sbs(S'orde'
p561
S'order'
p562
tp563
g5
(g2
g6
NtRp564
(dp565
g9
g1
(g10
tRp566
((I0
(I0
tttp567
I1
ssg15
g1
(g10
tRp568
((I0
(I0
tttp569
I1
ssg18
I1
sbs(S'ik graag op'
p570
S'in the meantime , i'
p571
tp572
g5
(g2
g6
NtRp573
(dp574
g9
g1
(g10
tRp575
((g12
(I1
tt(I0
(I2
tt(I1
(I31
tt(I2
g13
t(I3
g13
t(I4
(I0
tttp576
I1
ssg15
g1
(g10
tRp577
((g12
(I1
I2
I3
tt(I0
(I4
tt(I1
g13
t(I2
(I0
tttp578
I1
ssg18
I1
sbs(S'onderbroken , te zijn hervat'
p579
S','
tp580
g5
(g2
g6
NtRp581
(dp582
g9
g1
(g10
tRp583
((g12
(I0
I2
I3
I4
tt(I0
(I1
tttp584
I1
ssg15
g1
(g10
tRp585
((I0
g13
t(I1
(I0
tt(I2
g13
t(I3
g13
t(I4
g13
ttp586
I1
ssg18
I1
sbs(S'parlement , die op vrijdag 17 december'
S'parliament adjourned on friday 17 december 1999'
p587
tp588
g5
(g2
g6
NtRp589
(dp590
g9
g1
(g10
tRp591
((I0
(I0
tt(I1
(I1
I2
tt(I2
(I3
tt(I3
(I4
tt(I4
(I5
tt(I5
(I6
tt(I6
g13
ttp592
I1
ssg15
g1
(g10
tRp593
((g12
(I6
tt(I0
(I0
tt(I1
(I1
tt(I2
(I1
tt(I3
(I2
tt(I4
(I3
tt(I5
(I4
tt(I6
(I5
tttp594
I1
ssg18
I1
sbs(g421
S', i'
p595
tp596
g5
(g2
g6
NtRp597
(dp598
g9
g1
(g10
tRp599
((I0
g13
t(I1
(I0
tttp600
I1
ssg15
g1
(g10
tRp601
((g12
(I0
tt(I0
(I1
tttp602
I1
ssg18
I1
sbs(S'zoals'
p603
S'as'
p604
tp605
g5
(g2
g6
NtRp606
(dp607
g9
g1
(g10
tRp608
((I0
(I0
tttp609
I1
ssg15
g1
(g10
tRp610
((I0
(I0
tttp611
I1
ssg18
I1
sbs(S'stilte staande in acht te nemen .'
p612
S"'s silence ."
p613
tp614
g5
(g2
g6
NtRp615
(dp616
g9
g1
(g10
tRp617
((I0
(I0
tt(I1
(I0
I1
I2
I3
I4
I5
tt(I2
(I6
tttp618
I1
ssg15
g1
(g10
tRp619
((I0
(I0
I1
tt(I1
(I1
tt(I2
(I1
tt(I3
(I1
tt(I4
(I1
tt(I5
(I1
tt(I6
(I2
tttp620
I1
ssg18
I1
sbs(S'op vrijdag 17 december werd onderbroken ,'
p621
S'on friday 17 december 1999 ,'
p622
tp623
g5
(g2
g6
NtRp624
(dp625
g9
g1
(g10
tRp626
((g12
(I4
I5
tt(I0
(I0
tt(I1
(I1
tt(I2
(I2
tt(I3
(I3
tt(I4
g13
t(I5
(I6
tttp627
I1
ssg15
g1
(g10
tRp628
((g12
(I4
tt(I0
(I0
tt(I1
(I1
tt(I2
(I2
tt(I3
(I3
tt(I4
g13
t(I5
g13
t(I6
(I5
tttp629
I1
ssg18
I1
sbs(S', te zijn hervat'
S'1999 ,'
tp630
g5
(g2
g6
NtRp631
(dp632
g9
g1
(g10
tRp633
((g12
(I1
I2
I3
tt(I0
g13
t(I1
(I0
tttp634
I1
ssg15
g1
(g10
tRp635
((g12
(I0
tt(I0
(I1
tt(I1
g13
t(I2
g13
t(I3
g13
ttp636
I1
ssg18
I1
sbs(S'een gelukkig nieuwjaar en'
p637
S'a happy new year in'
p638
tp639
g5
(g2
g6
NtRp640
(dp641
g9
g1
(g10
tRp642
((I0
(I0
tt(I1
(I1
I2
tt(I2
(I2
tt(I3
(I2
tt(I4
(I3
tttp643
I1
ssg15
g1
(g10
tRp644
((I0
(I0
tt(I1
(I1
tt(I2
(I1
I2
I3
tt(I3
(I4
tttp645
I1
ssg18
I1
sbs(S'op vrijdag 17'
p646
S'on friday 17'
p647
tp648
g5
(g2
g6
NtRp649
(dp650
g9
g1
(g10
tRp651
((I0
(I0
tt(I1
(I1
tt(I2
(I2
tttp652
I1
ssg15
g1
(g10
tRp653
((I0
(I0
tt(I1
(I1
tt(I2
(I2
tttp654
I1
ssg18
I1
sbs(S'de'
p655
S'the'
p656
tp657
g5
(g2
g6
NtRp658
(dp659
g9
g1
(g10
tRp660
((I0
(I0
tttp661
I7
ssg15
g1
(g10
tRp662
((I0
(I0
tttp663
I7
ssg18
I7
sbs(S'aantal van'
p664
S'number of'
p665
tp666
g5
(g2
g6
NtRp667
(dp668
g9
g1
(g10
tRp669
((I0
(I0
tt(I1
(I0
I1
tttp670
I1
ssg15
g1
(g10
tRp671
((I0
(I0
I1
tt(I1
(I1
tttp672
I1
ssg18
I1
sbs(S'wil ik'
S', i should like to'
p673
tp674
g5
(g2
g6
NtRp675
(dp676
g9
g1
(g10
tRp677
((I0
g13
t(I1
(I1
tt(I2
(I0
tt(I3
(I0
tt(I4
(I0
tttp678
I1
ssg15
g1
(g10
tRp679
((g12
(I0
tt(I0
(I2
I3
I4
tt(I1
(I1
tttp680
I1
ssg18
I1
sbs(S'een minuut'
S'a minute'
p681
tp682
g5
(g2
g6
NtRp683
(dp684
g9
g1
(g10
tRp685
((I0
(I0
tt(I1
(I1
tttp686
I1
ssg15
g1
(g10
tRp687
((I0
(I0
tt(I1
(I1
tttp688
I1
ssg18
I1
sbs(S'een debat'
p689
S'a debate'
p690
tp691
g5
(g2
g6
NtRp692
(dp693
g9
g1
(g10
tRp694
((I0
(I0
tt(I1
(I1
tttp695
I1
ssg15
g1
(g10
tRp696
((I0
(I0
tt(I1
(I1
tttp697
I1
ssg18
I1
sbs(S'deze minuut'
S'then , for this minute'
p698
tp699
g5
(g2
g6
NtRp700
(dp701
g9
g1
(g10
tRp702
((I0
g13
t(I1
g13
t(I2
g13
t(I3
(I0
tt(I4
(I1
tttp703
I1
ssg15
g1
(g10
tRp704
((g12
(I0
I1
I2
tt(I0
(I3
tt(I1
(I4
tttp705
I1
ssg18
I1
sbs(S'. de burgers van een'
p706
S', still the people in a'
p707
tp708
g5
(g2
g6
NtRp709
(dp710
g9
g1
(g10
tRp711
((I0
(I0
tt(I1
g13
t(I2
(I1
tt(I3
(I2
tt(I4
(I3
tt(I5
(I4
tttp712
I1
ssg15
g1
(g10
tRp713
((g12
(I1
tt(I0
(I0
tt(I1
(I2
tt(I2
(I3
tt(I3
(I4
tt(I4
(I5
tttp714
I1
ssg18
I1
sbs(S'onderbroken , te'
S'1999 ,'
tp715
g5
(g2
g6
NtRp716
(dp717
g9
g1
(g10
tRp718
((g12
(I0
I2
tt(I0
g13
t(I1
(I1
tttp719
I1
ssg15
g1
(g10
tRp720
((g12
(I0
tt(I0
g13
t(I1
(I1
tt(I2
g13
ttp721
I1
ssg18
I1
sbs(S'. de burgers van'
p722
S', still the people in'
p723
tp724
g5
(g2
g6
NtRp725
(dp726
g9
g1
(g10
tRp727
((I0
(I0
tt(I1
g13
t(I2
(I1
tt(I3
(I2
tt(I4
(I3
tttp728
I1
ssg15
g1
(g10
tRp729
((g12
(I1
tt(I0
(I0
tt(I1
(I2
tt(I2
(I3
tt(I3
(I4
tttp730
I1
ssg18
I1
sbs(S'de voorzitter , ik'
p731
S'president , on'
p732
tp733
g5
(g2
g6
NtRp734
(dp735
g9
g1
(g10
tRp736
((I0
(I0
I1
tt(I1
(I2
tt(I2
(I3
tttp737
I1
ssg15
g1
(g10
tRp738
((I0
(I0
tt(I1
(I0
tt(I2
(I1
tt(I3
(I2
tttp739
I1
ssg18
I1
sbs(S'werd onderbroken , te zijn hervat .'
S'1999 , and'
tp740
g5
(g2
g6
NtRp741
(dp742
g9
g1
(g10
tRp743
((g12
(I0
I1
I3
I4
I5
tt(I0
g13
t(I1
(I2
tt(I2
(I6
tttp744
I1
ssg15
g1
(g10
tRp745
((g12
(I0
tt(I0
g13
t(I1
g13
t(I2
(I1
tt(I3
g13
t(I4
g13
t(I5
g13
t(I6
(I2
tttp746
I1
ssg18
I1
sbs(S'de voorzitter ,'
p747
S'president ,'
p748
tp749
g5
(g2
g6
NtRp750
(dp751
g9
g1
(g10
tRp752
((I0
(I0
I1
tt(I1
(I2
tttp753
I1
ssg15
g1
(g10
tRp754
((I0
(I0
tt(I1
(I0
tt(I2
(I1
tttp755
I1
ssg18
I1
sbs(S'ik verklaar de'
p756
S'i declare resumed the'
p757
tp758
g5
(g2
g6
NtRp759
(dp760
g9
g1
(g10
tRp761
((I0
(I0
tt(I1
(I1
tt(I2
(I1
tt(I3
(I2
tttp762
I1
ssg15
g1
(g10
tRp763
((I0
(I0
tt(I1
(I1
I2
tt(I2
(I3
tttp764
I1
ssg18
I1
sbs(S'hoop dat u'
S'the hope that you enjoyed'
p765
tp766
g5
(g2
g6
NtRp767
(dp768
g9
g1
(g10
tRp769
((I0
g13
t(I1
(I0
tt(I2
(I1
tt(I3
(I2
tt(I4
g13
ttp770
I1
ssg15
g1
(g10
tRp771
((g12
(I0
I4
tt(I0
(I1
tt(I1
(I2
tt(I2
(I3
tttp772
I1
ssg18
I1
sbs(S'van de zitting'
p773
S'of the session'
p774
tp775
g5
(g2
g6
NtRp776
(dp777
g9
g1
(g10
tRp778
((I0
(I0
tt(I1
(I1
tt(I2
(I2
tttp779
I1
ssg15
g1
(g10
tRp780
((I0
(I0
tt(I1
(I1
tt(I2
(I2
tttp781
I1
ssg18
I1
sbs(S'mevrouw'
p782
S'madam'
p783
tp784
g5
(g2
g6
NtRp785
(dp786
g9
g1
(g10
tRp787
((I0
(I0
tttp788
I1
ssg15
g1
(g10
tRp789
((I0
(I0
tttp790
I1
ssg18
I1
sbs(S'wens'
p791
S'would like once again to wish'
p792
tp793
g5
(g2
g6
NtRp794
(dp795
g9
g1
(g10
tRp796
((I0
(I0
tt(I1
(I0
tt(I2
g13
t(I3
g13
t(I4
g13
t(I5
(I0
tttp797
I1
ssg15
g1
(g10
tRp798
((g12
(I2
I3
I4
tt(I0
(I0
I1
I5
tttp799
I1
ssg18
I1
sbs(S'deze'
p800
S'this'
p801
tp802
g5
(g2
g6
NtRp803
(dp804
g9
g1
(g10
tRp805
((I0
(I0
tttp806
I2
ssg15
g1
(g10
tRp807
((I0
(I0
tttp808
I2
ssg18
I2
sbs(S'gelukkig nieuwjaar'
p809
S'happy new year'
p810
tp811
g5
(g2
g6
NtRp812
(dp813
g9
g1
(g10
tRp814
((I0
(I0
I1
tt(I1
(I1
tt(I2
(I1
tttp815
I1
ssg15
g1
(g10
tRp816
((I0
(I0
tt(I1
(I0
I1
I2
tttp817
I1
ssg18
I1
sbs(S'verschrikkelijke natuurrampen getroffen'
p818
S'natural disasters that truly were dreadful'
tp819
g5
(g2
g6
NtRp820
(dp821
g9
g1
(g10
tRp822
((g12
(I2
tt(I0
(I1
tt(I1
(I1
tt(I2
g13
t(I3
(I-2
tt(I4
(I-3
tt(I5
(I0
tttp823
I1
ssg15
g1
(g10
tRp824
((g12
(I2
I3
I4
tt(I0
(I5
tt(I1
(I0
I1
tt(I2
g13
ttp825
I1
ssg18
I1
sbs(S'kunnen constateren'
p826
S'will have seen'
tp827
g5
(g2
g6
NtRp828
(dp829
g9
g1
(g10
tRp830
((I0
(I0
tt(I1
(I-1
I1
tt(I2
(I0
I1
tttp831
I1
ssg15
g1
(g10
tRp832
((I0
(I0
I2
tt(I1
(I1
I2
tttp833
I1
ssg18
I1
sbs(S'hoop dat'
p834
S'hope that'
p835
tp836
g5
(g2
g6
NtRp837
(dp838
g9
g1
(g10
tRp839
((I0
(I0
tt(I1
(I1
tttp840
I1
ssg15
g1
(g10
tRp841
((I0
(I0
tt(I1
(I1
tttp842
I1
ssg18
I1
sbs(S'vrijdag 17 december werd onderbroken'
S'friday 17 december 1999'
tp843
g5
(g2
g6
NtRp844
(dp845
g9
g1
(g10
tRp846
((g12
(I3
I4
tt(I0
(I0
tt(I1
(I1
tt(I2
(I2
tt(I3
g13
ttp847
I1
ssg15
g1
(g10
tRp848
((g12
(I3
tt(I0
(I0
tt(I1
(I1
tt(I2
(I2
tt(I3
g13
t(I4
g13
ttp849
I1
ssg18
I1
sbs(S'u allen een gelukkig nieuwjaar en'
p850
S'you a happy new year in'
p851
tp852
g5
(g2
g6
NtRp853
(dp854
g9
g1
(g10
tRp855
((I0
(I0
I1
tt(I1
(I2
tt(I2
(I3
I4
tt(I3
(I4
tt(I4
(I4
tt(I5
(I5
tttp856
I1
ssg15
g1
(g10
tRp857
((I0
(I0
tt(I1
(I0
tt(I2
(I1
tt(I3
(I2
tt(I4
(I2
I3
I4
tt(I5
(I5
tttp858
I1
ssg18
I1
sbs(S'de slachtoffers . ik doel hiermee'
p859
S'all the victims concerned ,'
p860
tp861
g5
(g2
g6
NtRp862
(dp863
g9
g1
(g10
tRp864
((g12
(I3
I4
tt(I0
(I5
tt(I1
(I0
tt(I2
(I1
tt(I3
g13
t(I4
(I2
tttp865
I1
ssg15
g1
(g10
tRp866
((g12
(I3
tt(I0
(I1
tt(I1
(I2
tt(I2
(I4
tt(I3
g13
t(I4
g13
t(I5
(I0
tttp867
I1
ssg18
I1
sbs(S'een goede vakantie heeft gehad'
p868
S'a pleasant festive'
p869
tp870
g5
(g2
g6
NtRp871
(dp872
g9
g1
(g10
tRp873
((I0
(I0
tt(I1
(I1
tt(I2
(I2
I3
I4
tttp874
I1
ssg15
g1
(g10
tRp875
((I0
(I0
tt(I1
(I1
tt(I2
(I2
tt(I3
(I2
tt(I4
(I2
tttp876
I1
ssg18
I1
sbs(g508
S'of natural disasters'
p877
tp878
g5
(g2
g6
NtRp879
(dp880
g9
g1
(g10
tRp881
((I0
g13
t(I1
(I0
tt(I2
(I0
tttp882
I1
ssg15
g1
(g10
tRp883
((g12
(I0
tt(I0
(I1
I2
tttp884
I1
ssg18
I1
sbs(S'verklaar de zitting van het'
p885
S'declare resumed the session of the'
p886
tp887
g5
(g2
g6
NtRp888
(dp889
g9
g1
(g10
tRp890
((I0
(I0
tt(I1
(I0
tt(I2
(I1
tt(I3
(I2
tt(I4
(I3
tt(I5
(I4
tttp891
I1
ssg15
g1
(g10
tRp892
((I0
(I0
I1
tt(I1
(I2
tt(I2
(I3
tt(I3
(I4
tt(I4
(I5
tttp893
I1
ssg18
I1
sbs(S'dat'
p894
S'in the course of'
p895
tp896
g5
(g2
g6
NtRp897
(dp898
g9
g1
(g10
tRp899
((I0
(I0
tt(I1
g13
t(I2
g13
t(I3
g13
ttp900
I1
ssg15
g1
(g10
tRp901
((g12
(I1
I2
I3
tt(I0
(I0
tttp902
I1
ssg18
I1
sbs(S'millenniumbug " uitgebleven'
S"millennium bug ' failed to"
p903
tp904
g5
(g2
g6
NtRp905
(dp906
g9
g1
(g10
tRp907
((I0
(I0
tt(I1
(I0
I2
tt(I2
(I1
tt(I3
(I2
tt(I4
g13
ttp908
I1
ssg15
g1
(g10
tRp909
((g12
(I4
tt(I0
(I0
I1
tt(I1
(I2
tt(I2
(I1
I3
tttp910
I1
ssg18
I1
sbs(S'wil ik graag'
p911
S'i should like to'
tp912
g5
(g2
g6
NtRp913
(dp914
g9
g1
(g10
tRp915
((g12
(I2
tt(I0
(I1
tt(I1
(I0
tt(I2
(I0
tt(I3
(I0
tttp916
I1
ssg15
g1
(g10
tRp917
((I0
(I1
I2
I3
tt(I1
(I0
tt(I2
g13
ttp918
I1
ssg18
I1
sbs(S'.'
S'and'
p919
tp920
g5
(g2
g6
NtRp921
(dp922
g9
g1
(g10
tRp923
((I0
(I0
tttp924
I1
ssg15
g1
(g10
tRp925
((I0
(I0
tttp926
I1
ssg18
I1
sbs(S'december'
p927
S'december 1999'
p928
tp929
g5
(g2
g6
NtRp930
(dp931
g9
g1
(g10
tRp932
((I0
(I0
tt(I1
g13
ttp933
I1
ssg15
g1
(g10
tRp934
((g12
(I1
tt(I0
(I0
tttp935
I1
ssg18
I1
sbs(S'slachtoffers . ik'
p936
S'victims concerned ,'
tp937
g5
(g2
g6
NtRp938
(dp939
g9
g1
(g10
tRp940
((g12
(I2
tt(I0
(I0
tt(I1
g13
t(I2
(I1
tttp941
I1
ssg15
g1
(g10
tRp942
((g12
(I1
tt(I0
(I0
tt(I1
(I2
tt(I2
g13
ttp943
I1
ssg18
I1
sbs(S'. ik'
S'concerned ,'
tp944
g5
(g2
g6
NtRp945
(dp946
g9
g1
(g10
tRp947
((g12
(I1
tt(I0
g13
t(I1
(I0
tttp948
I1
ssg15
g1
(g10
tRp949
((g12
(I0
tt(I0
(I1
tt(I1
g13
ttp950
I1
ssg18
I1
sbs(S'wil een motie van orde'
p951
S'a point of order'
p952
tp953
g5
(g2
g6
NtRp954
(dp955
g9
g1
(g10
tRp956
((I0
(I1
tt(I1
(I0
I2
tt(I2
(I3
tt(I3
(I4
tttp957
I1
ssg15
g1
(g10
tRp958
((I0
(I1
tt(I1
(I0
tt(I2
(I1
tt(I3
(I2
tt(I4
(I3
tttp959
I1
ssg18
I1
sbs(S'lidstaten van de unie'
p960
S'countries of the european union'
p961
tp962
g5
(g2
g6
NtRp963
(dp964
g9
g1
(g10
tRp965
((I0
(I0
tt(I1
(I1
tt(I2
(I2
tt(I3
(I3
tt(I4
(I3
tttp966
I1
ssg15
g1
(g10
tRp967
((I0
(I0
tt(I1
(I1
tt(I2
(I2
tt(I3
(I3
I4
tttp968
I1
ssg18
I1
sbs(S'. de burgers van een'
S'materialise , still the people in a'
p969
tp970
g5
(g2
g6
NtRp971
(dp972
g9
g1
(g10
tRp973
((I0
g13
t(I1
(I0
tt(I2
g13
t(I3
(I1
tt(I4
(I2
tt(I5
(I3
tt(I6
(I4
tttp974
I1
ssg15
g1
(g10
tRp975
((g12
(I0
I2
tt(I0
(I1
tt(I1
(I3
tt(I2
(I4
tt(I3
(I5
tt(I4
(I6
tttp976
I1
ssg18
I1
sbs(S'verzoek van een'
S'a number of members have requested ,'
p977
tp978
g5
(g2
g6
NtRp979
(dp980
g9
g1
(g10
tRp981
((g12
(I1
tt(I0
(I2
tt(I1
(I3
tt(I2
(I3
tt(I3
(I4
I5
I6
tt(I4
(I6
tt(I5
(I0
tt(I6
g13
ttp982
I1
ssg15
g1
(g10
tRp983
((g12
(I1
I2
I3
I4
I6
tt(I0
(I5
tt(I1
g13
t(I2
(I0
tttp984
I1
ssg18
I1
sbs(S'verschrikkelijke natuurrampen getroffen'
S'of natural disasters that truly were dreadful'
tp985
g5
(g2
g6
NtRp986
(dp987
g9
g1
(g10
tRp988
((g12
(I2
tt(I0
g13
t(I1
(I1
tt(I2
(I1
tt(I3
g13
t(I4
(I-2
tt(I5
(I-3
tt(I6
(I0
tttp989
I1
ssg15
g1
(g10
tRp990
((g12
(I0
I3
I4
I5
tt(I0
(I6
tt(I1
(I1
I2
tt(I2
g13
ttp991
I1
ssg18
I1
sbs(S'natuurrampen getroffen'
S'series of natural disasters'
tp992
g5
(g2
g6
NtRp993
(dp994
g9
g1
(g10
tRp995
((g12
(I1
tt(I0
g13
t(I1
g13
t(I2
(I0
tt(I3
(I0
tttp996
I1
ssg15
g1
(g10
tRp997
((g12
(I0
I1
tt(I0
(I2
I3
tt(I1
g13
ttp998
I1
ssg18
I1
sbs(S'het europees parlement , die'
p999
S'the european parliament adjourned'
p1000
tp1001
g5
(g2
g6
NtRp1002
(dp1003
g9
g1
(g10
tRp1004
((I0
(I0
tt(I1
(I1
tt(I2
(I2
tt(I3
(I3
I4
tttp1005
I1
ssg15
g1
(g10
tRp1006
((I0
(I0
tt(I1
(I1
tt(I2
(I2
tt(I3
(I3
tt(I4
(I3
tttp1007
I1
ssg18
I1
sbs(S'onderbroken , te zijn'
S'1999 ,'
tp1008
g5
(g2
g6
NtRp1009
(dp1010
g9
g1
(g10
tRp1011
((g12
(I0
I2
I3
tt(I0
g13
t(I1
(I1
tttp1012
I1
ssg15
g1
(g10
tRp1013
((g12
(I0
tt(I0
g13
t(I1
(I1
tt(I2
g13
t(I3
g13
ttp1014
I1
ssg18
I1
sbs(S'het'
p1015
S'the meantime'
p1016
tp1017
g5
(g2
g6
NtRp1018
(dp1019
g9
g1
(g10
tRp1020
((I0
(I0
tt(I1
g13
ttp1021
I1
ssg15
g1
(g10
tRp1022
((g12
(I1
tt(I0
(I0
tttp1023
I1
ssg18
I1
sbs(S'van het europees parlement'
p1024
S'of the european parliament'
p1025
tp1026
g5
(g2
g6
NtRp1027
(dp1028
g9
g1
(g10
tRp1029
((I0
(I0
tt(I1
(I1
tt(I2
(I2
tt(I3
(I3
tttp1030
I1
ssg15
g1
(g10
tRp1031
((I0
(I0
tt(I1
(I1
tt(I2
(I2
tt(I3
(I3
tttp1032
I1
ssg18
I1
sbs(S'noodweer'
p1033
S'terrible storms ,'
p1034
tp1035
g5
(g2
g6
NtRp1036
(dp1037
g9
g1
(g10
tRp1038
((I0
(I0
tt(I1
(I0
tt(I2
g13
ttp1039
I1
ssg15
g1
(g10
tRp1040
((g12
(I2
tt(I0
(I0
I1
tttp1041
I1
ssg18
I1
sbs(g354
S'that truly'
p1042
tp1043
g5
(g2
g6
NtRp1044
(dp1045
g9
g1
(g10
tRp1046
((I0
g13
t(I1
(I0
tttp1047
I1
ssg15
g1
(g10
tRp1048
((g12
(I0
tt(I0
(I1
tttp1049
I1
ssg18
I1
sbs(S'hoop dat u een goede'
p1050
S'hope that you enjoyed a pleasant'
p1051
tp1052
g5
(g2
g6
NtRp1053
(dp1054
g9
g1
(g10
tRp1055
((I0
(I0
tt(I1
(I1
tt(I2
(I2
tt(I3
g13
t(I4
(I3
tt(I5
(I4
tttp1056
I1
ssg15
g1
(g10
tRp1057
((g12
(I3
tt(I0
(I0
tt(I1
(I1
tt(I2
(I2
tt(I3
(I4
tt(I4
(I5
tttp1058
I1
ssg18
I1
sbs(g508
S'series of natural disasters'
p1059
tp1060
g5
(g2
g6
NtRp1061
(dp1062
g9
g1
(g10
tRp1063
((I0
g13
t(I1
g13
t(I2
(I0
tt(I3
(I0
tttp1064
I1
ssg15
g1
(g10
tRp1065
((g12
(I0
I1
tt(I0
(I2
I3
tttp1066
I1
ssg18
I1
sbs(S'verschrikkelijke natuurrampen getroffen'
S'series of natural disasters that truly were dreadful'
tp1067
g5
(g2
g6
NtRp1068
(dp1069
g9
g1
(g10
tRp1070
((g12
(I2
tt(I0
g13
t(I1
g13
t(I2
(I1
tt(I3
(I1
tt(I4
g13
t(I5
(I-2
tt(I6
(I-3
tt(I7
(I0
tttp1071
I1
ssg15
g1
(g10
tRp1072
((g12
(I0
I1
I4
I5
I6
tt(I0
(I7
tt(I1
(I2
I3
tt(I2
g13
ttp1073
I1
ssg18
I1
sbs(S'. ik'
S','
tp1074
g5
(g2
g6
NtRp1075
(dp1076
g9
g1
(g10
tRp1077
((g12
(I1
tt(I0
(I0
tttp1078
I1
ssg15
g1
(g10
tRp1079
((I0
(I0
tt(I1
g13
ttp1080
I1
ssg18
I1
sbs(S'" millenniumbug " uitgebleven'
S"' millennium bug ' failed to"
p1081
tp1082
g5
(g2
g6
NtRp1083
(dp1084
g9
g1
(g10
tRp1085
((I0
(I0
tt(I1
(I1
tt(I2
(I1
I3
tt(I3
(I2
tt(I4
(I3
tt(I5
g13
ttp1086
I1
ssg15
g1
(g10
tRp1087
((g12
(I5
tt(I0
(I0
tt(I1
(I1
I2
tt(I2
(I3
tt(I3
(I2
I4
tttp1088
I1
ssg18
I1
sbs(S', die'
p1089
S'adjourned'
p1090
tp1091
g5
(g2
g6
NtRp1092
(dp1093
g9
g1
(g10
tRp1094
((I0
(I0
I1
tttp1095
I1
ssg15
g1
(g10
tRp1096
((I0
(I0
tt(I1
(I0
tttp1097
I1
ssg18
I1
sbs(S'.'
S'materialise , still'
p1098
tp1099
g5
(g2
g6
NtRp1100
(dp1101
g9
g1
(g10
tRp1102
((I0
g13
t(I1
(I0
tt(I2
g13
ttp1103
I1
ssg15
g1
(g10
tRp1104
((g12
(I0
I2
tt(I0
(I1
tttp1105
I1
ssg18
I1
sbs(S'unie heeft geteisterd'
p1106
S'european union'
tp1107
g5
(g2
g6
NtRp1108
(dp1109
g9
g1
(g10
tRp1110
((g12
(I1
I2
tt(I0
(I0
tt(I1
(I0
tttp1111
I1
ssg15
g1
(g10
tRp1112
((I0
(I0
I1
tt(I1
g13
t(I2
g13
ttp1113
I1
ssg18
I1
sbs(S'vrijdag 17 december werd onderbroken ,'
p1114
S'friday 17 december 1999 ,'
p1115
tp1116
g5
(g2
g6
NtRp1117
(dp1118
g9
g1
(g10
tRp1119
((g12
(I3
I4
tt(I0
(I0
tt(I1
(I1
tt(I2
(I2
tt(I3
g13
t(I4
(I5
tttp1120
I1
ssg15
g1
(g10
tRp1121
((g12
(I3
tt(I0
(I0
tt(I1
(I1
tt(I2
(I2
tt(I3
g13
t(I4
g13
t(I5
(I4
tttp1122
I1
ssg18
I1
sbs(S'mevrouw de voorzitter ,'
p1123
S'madam president ,'
p1124
tp1125
g5
(g2
g6
NtRp1126
(dp1127
g9
g1
(g10
tRp1128
((I0
(I0
tt(I1
(I1
I2
tt(I2
(I3
tttp1129
I1
ssg15
g1
(g10
tRp1130
((I0
(I0
tt(I1
(I1
tt(I2
(I1
tt(I3
(I2
tttp1131
I1
ssg18
I1
sbs(S'vakantie heeft gehad'
p1132
S'festive'
p1133
tp1134
g5
(g2
g6
NtRp1135
(dp1136
g9
g1
(g10
tRp1137
((I0
(I0
I1
I2
tttp1138
I1
ssg15
g1
(g10
tRp1139
((I0
(I0
tt(I1
(I0
tt(I2
(I0
tttp1140
I1
ssg18
I1
sbs(S'('
S'('
tp1141
g5
(g2
g6
NtRp1142
(dp1143
g9
g1
(g10
tRp1144
((I0
(I0
tttp1145
I1
ssg15
g1
(g10
tRp1146
((I0
(I0
tttp1147
I1
ssg18
I1
sbs(S'. de'
S'materialise , still the'
p1148
tp1149
g5
(g2
g6
NtRp1150
(dp1151
g9
g1
(g10
tRp1152
((I0
g13
t(I1
(I0
tt(I2
g13
t(I3
(I1
tttp1153
I1
ssg15
g1
(g10
tRp1154
((g12
(I0
I2
tt(I0
(I1
tt(I1
(I3
tttp1155
I1
ssg18
I1
sbs(S'vrijdag 17 december werd onderbroken , te'
p1156
S'friday 17 december 1999 ,'
tp1157
g5
(g2
g6
NtRp1158
(dp1159
g9
g1
(g10
tRp1160
((g12
(I3
I4
I6
tt(I0
(I0
tt(I1
(I1
tt(I2
(I2
tt(I3
g13
t(I4
(I5
tttp1161
I1
ssg15
g1
(g10
tRp1162
((g12
(I3
tt(I0
(I0
tt(I1
(I1
tt(I2
(I2
tt(I3
g13
t(I4
g13
t(I5
(I4
tt(I6
g13
ttp1163
I1
ssg18
I1
sbs(S'stilte staande in acht te nemen'
p1164
S"'s silence"
p1165
tp1166
g5
(g2
g6
NtRp1167
(dp1168
g9
g1
(g10
tRp1169
((I0
(I0
tt(I1
(I0
I1
I2
I3
I4
I5
tttp1170
I1
ssg15
g1
(g10
tRp1171
((I0
(I0
I1
tt(I1
(I1
tt(I2
(I1
tt(I3
(I1
tt(I4
(I1
tt(I5
(I1
tttp1172
I1
ssg18
I1
sbs(S'unie heeft'
p1173
S'european union'
tp1174
g5
(g2
g6
NtRp1175
(dp1176
g9
g1
(g10
tRp1177
((g12
(I1
tt(I0
(I0
tt(I1
(I0
tttp1178
I1
ssg15
g1
(g10
tRp1179
((I0
(I0
I1
tt(I1
g13
ttp1180
I1
ssg18
I1
sbs(S'lidstaten'
p1181
S'countries'
p1182
tp1183
g5
(g2
g6
NtRp1184
(dp1185
g9
g1
(g10
tRp1186
((I0
(I0
tttp1187
I2
ssg15
g1
(g10
tRp1188
((I0
(I0
tttp1189
I2
ssg18
I2
sbs(S'dat u'
S'that you enjoyed'
p1190
tp1191
g5
(g2
g6
NtRp1192
(dp1193
g9
g1
(g10
tRp1194
((I0
(I0
tt(I1
(I1
tt(I2
g13
ttp1195
I1
ssg15
g1
(g10
tRp1196
((g12
(I2
tt(I0
(I0
tt(I1
(I1
tttp1197
I1
ssg18
I1
sbs(S'over'
p1198
S'on'
p1199
tp1200
g5
(g2
g6
NtRp1201
(dp1202
g9
g1
(g10
tRp1203
((I0
(I0
tttp1204
I1
ssg15
g1
(g10
tRp1205
((I0
(I0
tttp1206
I1
ssg18
I1
sbs(S'17 december werd'
S'17 december 1999'
tp1207
g5
(g2
g6
NtRp1208
(dp1209
g9
g1
(g10
tRp1210
((g12
(I2
tt(I0
(I0
tt(I1
(I1
tt(I2
g13
ttp1211
I1
ssg15
g1
(g10
tRp1212
((g12
(I2
tt(I0
(I0
tt(I1
(I1
tt(I2
g13
ttp1213
I1
ssg18
I1
sbs(S'ik wil een motie van orde stellen'
p1214
S'on a point of order'
tp1215
g5
(g2
g6
NtRp1216
(dp1217
g9
g1
(g10
tRp1218
((g12
(I6
tt(I0
(I0
tt(I1
(I2
tt(I2
(I1
I3
tt(I3
(I4
tt(I4
(I5
tttp1219
I1
ssg15
g1
(g10
tRp1220
((I0
(I0
tt(I1
(I2
tt(I2
(I1
tt(I3
(I2
tt(I4
(I3
tt(I5
(I4
tt(I6
g13
ttp1221
I1
ssg18
I1
sbs(S'gelukkig nieuwjaar en hoop dat'
p1222
S'happy new year in the hope that'
p1223
tp1224
g5
(g2
g6
NtRp1225
(dp1226
g9
g1
(g10
tRp1227
((I0
(I0
I1
tt(I1
(I1
tt(I2
(I1
tt(I3
(I2
tt(I4
g13
t(I5
(I3
tt(I6
(I4
tttp1228
I1
ssg15
g1
(g10
tRp1229
((g12
(I4
tt(I0
(I0
tt(I1
(I0
I1
I2
tt(I2
(I3
tt(I3
(I5
tt(I4
(I6
tttp1230
I1
ssg18
I1
sbs(S'hoop dat u'
S'hope that you enjoyed'
p1231
tp1232
g5
(g2
g6
NtRp1233
(dp1234
g9
g1
(g10
tRp1235
((I0
(I0
tt(I1
(I1
tt(I2
(I2
tt(I3
g13
ttp1236
I1
ssg15
g1
(g10
tRp1237
((g12
(I3
tt(I0
(I0
tt(I1
(I1
tt(I2
(I2
tttp1238
I1
ssg18
I1
sbs(S'een goede vakantie heeft gehad .'
S'enjoyed a pleasant festive period .'
p1239
tp1240
g5
(g2
g6
NtRp1241
(dp1242
g9
g1
(g10
tRp1243
((I0
g13
t(I1
(I0
tt(I2
(I1
tt(I3
(I2
I3
I4
tt(I4
g13
t(I5
(I5
tttp1244
I1
ssg15
g1
(g10
tRp1245
((g12
(I0
I4
tt(I0
(I1
tt(I1
(I2
tt(I2
(I3
tt(I3
(I3
tt(I4
(I3
tt(I5
(I5
tttp1246
I1
ssg18
I1
sbs(S'van een'
S'a'
tp1247
g5
(g2
g6
NtRp1248
(dp1249
g9
g1
(g10
tRp1250
((g12
(I0
tt(I0
(I1
tttp1251
I1
ssg15
g1
(g10
tRp1252
((I0
g13
t(I1
(I0
tttp1253
I1
ssg18
I1
sbs(S'vrijdag'
p1254
S'friday'
p1255
tp1256
g5
(g2
g6
NtRp1257
(dp1258
g9
g1
(g10
tRp1259
((I0
(I0
tttp1260
I1
ssg15
g1
(g10
tRp1261
((I0
(I0
tttp1262
I1
ssg18
I1
sbs(S'een goede vakantie heeft gehad .'
p1263
S'a pleasant festive period .'
p1264
tp1265
g5
(g2
g6
NtRp1266
(dp1267
g9
g1
(g10
tRp1268
((I0
(I0
tt(I1
(I1
tt(I2
(I2
I3
I4
tt(I3
g13
t(I4
(I5
tttp1269
I1
ssg15
g1
(g10
tRp1270
((g12
(I3
tt(I0
(I0
tt(I1
(I1
tt(I2
(I2
tt(I3
(I2
tt(I4
(I2
tt(I5
(I4
tttp1271
I1
ssg18
I1
sbs(g894
S'in the'
tp1272
g5
(g2
g6
NtRp1273
(dp1274
g9
g1
(g10
tRp1275
((I0
(I0
tt(I1
g13
ttp1276
I1
ssg15
g1
(g10
tRp1277
((g12
(I1
tt(I0
(I0
tttp1278
I1
ssg18
I1
sbs(S'debat wilt'
p1279
S'debate'
p1280
tp1281
g5
(g2
g6
NtRp1282
(dp1283
g9
g1
(g10
tRp1284
((g12
(I1
tt(I0
(I0
tttp1285
I1
ssg15
g1
(g10
tRp1286
((I0
(I0
tt(I1
g13
ttp1287
I1
ssg18
I1
sbs(S', ik'
p1288
S', on'
p1289
tp1290
g5
(g2
g6
NtRp1291
(dp1292
g9
g1
(g10
tRp1293
((I0
(I0
tt(I1
(I1
tttp1294
I1
ssg15
g1
(g10
tRp1295
((I0
(I0
tt(I1
(I1
tttp1296
I1
ssg18
I1
sbs(S'ik wil u vragen'
S'please rise , then , for'
p1297
tp1298
g5
(g2
g6
NtRp1299
(dp1300
g9
g1
(g10
tRp1301
((I0
(I0
I1
I2
I3
tt(I1
g13
t(I2
g13
t(I3
g13
t(I4
g13
t(I5
g13
ttp1302
I1
ssg15
g1
(g10
tRp1303
((g12
(I1
I2
I3
I4
I5
tt(I0
(I0
tt(I1
(I0
tt(I2
(I0
tt(I3
(I0
tttp1304
I1
ssg18
I1
sbs(S'een aantal van'
p1305
S'a number of'
p1306
tp1307
g5
(g2
g6
NtRp1308
(dp1309
g9
g1
(g10
tRp1310
((I0
(I0
tt(I1
(I1
tt(I2
(I1
I2
tttp1311
I1
ssg15
g1
(g10
tRp1312
((I0
(I0
tt(I1
(I1
I2
tt(I2
(I2
tttp1313
I1
ssg18
I1
sbs(S'en hoop'
p1314
S'in the hope'
p1315
tp1316
g5
(g2
g6
NtRp1317
(dp1318
g9
g1
(g10
tRp1319
((I0
(I0
tt(I1
g13
t(I2
(I1
tttp1320
I1
ssg15
g1
(g10
tRp1321
((g12
(I1
tt(I0
(I0
tt(I1
(I2
tttp1322
I1
ssg18
I1
sbs(S'ik verklaar de zitting van'
p1323
S'i declare resumed the session of'
p1324
tp1325
g5
(g2
g6
NtRp1326
(dp1327
g9
g1
(g10
tRp1328
((I0
(I0
tt(I1
(I1
tt(I2
(I1
tt(I3
(I2
tt(I4
(I3
tt(I5
(I4
tttp1329
I1
ssg15
g1
(g10
tRp1330
((I0
(I0
tt(I1
(I1
I2
tt(I2
(I3
tt(I3
(I4
tt(I4
(I5
tttp1331
I1
ssg18
I1
sbs(S'onderbroken , te zijn'
p1332
S','
tp1333
g5
(g2
g6
NtRp1334
(dp1335
g9
g1
(g10
tRp1336
((g12
(I0
I2
I3
tt(I0
(I1
tttp1337
I1
ssg15
g1
(g10
tRp1338
((I0
g13
t(I1
(I0
tt(I2
g13
t(I3
g13
ttp1339
I1
ssg18
I1
sbs(S'dat u'
S'in the course'
tp1340
g5
(g2
g6
NtRp1341
(dp1342
g9
g1
(g10
tRp1343
((g12
(I1
tt(I0
(I0
tt(I1
g13
t(I2
g13
ttp1344
I1
ssg15
g1
(g10
tRp1345
((g12
(I1
I2
tt(I0
(I0
tt(I1
g13
ttp1346
I1
ssg18
I1
sbs(S', te'
S'1999 ,'
tp1347
g5
(g2
g6
NtRp1348
(dp1349
g9
g1
(g10
tRp1350
((g12
(I1
tt(I0
g13
t(I1
(I0
tttp1351
I1
ssg15
g1
(g10
tRp1352
((g12
(I0
tt(I0
(I1
tt(I1
g13
ttp1353
I1
ssg18
I1
sbs(S'hoop dat u een'
p1354
S'hope that you enjoyed a'
p1355
tp1356
g5
(g2
g6
NtRp1357
(dp1358
g9
g1
(g10
tRp1359
((I0
(I0
tt(I1
(I1
tt(I2
(I2
tt(I3
g13
t(I4
(I3
tttp1360
I1
ssg15
g1
(g10
tRp1361
((g12
(I3
tt(I0
(I0
tt(I1
(I1
tt(I2
(I2
tt(I3
(I4
tttp1362
I1
ssg18
I1
sbs(S'deze minuut'
S', for this minute'
p1363
tp1364
g5
(g2
g6
NtRp1365
(dp1366
g9
g1
(g10
tRp1367
((I0
g13
t(I1
g13
t(I2
(I0
tt(I3
(I1
tttp1368
I1
ssg15
g1
(g10
tRp1369
((g12
(I0
I1
tt(I0
(I2
tt(I1
(I3
tttp1370
I1
ssg18
I1
sbs(S'goede vakantie heeft gehad'
S'pleasant festive period'
p1371
tp1372
g5
(g2
g6
NtRp1373
(dp1374
g9
g1
(g10
tRp1375
((I0
(I0
tt(I1
(I1
I2
I3
tt(I2
g13
ttp1376
I1
ssg15
g1
(g10
tRp1377
((g12
(I2
tt(I0
(I0
tt(I1
(I1
tt(I2
(I1
tt(I3
(I1
tttp1378
I1
ssg18
I1
sbs(S'natuurrampen getroffen'
S'natural disasters that'
tp1379
g5
(g2
g6
NtRp1380
(dp1381
g9
g1
(g10
tRp1382
((g12
(I1
tt(I0
(I0
tt(I1
(I0
tt(I2
g13
ttp1383
I1
ssg15
g1
(g10
tRp1384
((g12
(I2
tt(I0
(I0
I1
tt(I1
g13
ttp1385
I1
ssg18
I1
sbs(S'u heeft kunnen constateren , is'
p1386
S'you will have seen ,'
p1387
tp1388
g5
(g2
g6
NtRp1389
(dp1390
g9
g1
(g10
tRp1391
((I0
(I0
tt(I1
(I2
tt(I2
(I1
I3
tt(I3
(I2
I3
tt(I4
(I4
I5
tttp1392
I1
ssg15
g1
(g10
tRp1393
((I0
(I0
tt(I1
(I2
tt(I2
(I1
I3
tt(I3
(I2
I3
tt(I4
(I4
tt(I5
(I4
tttp1394
I1
ssg18
I1
sbs(S'. de burgers van een'
S'to materialise , still the people in a'
p1395
tp1396
g5
(g2
g6
NtRp1397
(dp1398
g9
g1
(g10
tRp1399
((I0
g13
t(I1
g13
t(I2
(I0
tt(I3
g13
t(I4
(I1
tt(I5
(I2
tt(I6
(I3
tt(I7
(I4
tttp1400
I1
ssg15
g1
(g10
tRp1401
((g12
(I0
I1
I3
tt(I0
(I2
tt(I1
(I4
tt(I2
(I5
tt(I3
(I6
tt(I4
(I7
tttp1402
I1
ssg18
I1
sbs(S'een gelukkig nieuwjaar en'
S'a happy new year in the'
p1403
tp1404
g5
(g2
g6
NtRp1405
(dp1406
g9
g1
(g10
tRp1407
((I0
(I0
tt(I1
(I1
I2
tt(I2
(I2
tt(I3
(I2
tt(I4
(I3
tt(I5
g13
ttp1408
I1
ssg15
g1
(g10
tRp1409
((g12
(I5
tt(I0
(I0
tt(I1
(I1
tt(I2
(I1
I2
I3
tt(I3
(I4
tttp1410
I1
ssg18
I1
sbs(S'van de'
p1411
S'of the'
p1412
tp1413
g5
(g2
g6
NtRp1414
(dp1415
g9
g1
(g10
tRp1416
((I0
(I0
tt(I1
(I1
tttp1417
I2
ssg15
g1
(g10
tRp1418
((I0
(I0
tt(I1
(I1
tttp1419
I2
ssg18
I2
sbs(S'op vrijdag 17 december'
p1420
S'on friday 17 december'
p1421
tp1422
g5
(g2
g6
NtRp1423
(dp1424
g9
g1
(g10
tRp1425
((I0
(I0
tt(I1
(I1
tt(I2
(I2
tt(I3
(I3
tttp1426
I1
ssg15
g1
(g10
tRp1427
((I0
(I0
tt(I1
(I1
tt(I2
(I2
tt(I3
(I3
tttp1428
I1
ssg18
I1
sbs(S'u deze vergaderperiode'
S', during this part - session'
tp1429
g5
(g2
g6
NtRp1430
(dp1431
g9
g1
(g10
tRp1432
((g12
(I0
tt(I0
g13
t(I1
(I2
tt(I2
(I1
tt(I3
(I2
tt(I4
(I2
tt(I5
(I2
tttp1433
I1
ssg15
g1
(g10
tRp1434
((g12
(I0
tt(I0
g13
t(I1
(I2
tt(I2
(I1
I3
I4
I5
tttp1435
I1
ssg18
I1
sbs(S'parlement , die op vrijdag'
p1436
S'parliament adjourned on friday'
p1437
tp1438
g5
(g2
g6
NtRp1439
(dp1440
g9
g1
(g10
tRp1441
((I0
(I0
tt(I1
(I1
I2
tt(I2
(I3
tt(I3
(I4
tttp1442
I1
ssg15
g1
(g10
tRp1443
((I0
(I0
tt(I1
(I1
tt(I2
(I1
tt(I3
(I2
tt(I4
(I3
tttp1444
I1
ssg18
I1
sbs(S'en'
p1445
S'in the'
p1446
tp1447
g5
(g2
g6
NtRp1448
(dp1449
g9
g1
(g10
tRp1450
((I0
(I0
tt(I1
g13
ttp1451
I1
ssg15
g1
(g10
tRp1452
((g12
(I1
tt(I0
(I0
tttp1453
I1
ssg18
I1
sbs(S'debat'
p1454
g1280
tp1455
g5
(g2
g6
NtRp1456
(dp1457
g9
g1
(g10
tRp1458
((I0
(I0
tttp1459
I1
ssg15
g1
(g10
tRp1460
((I0
(I0
tttp1461
I1
ssg18
I1
sbs(S'verklaar de'
p1462
S'declare resumed the'
p1463
tp1464
g5
(g2
g6
NtRp1465
(dp1466
g9
g1
(g10
tRp1467
((I0
(I0
tt(I1
(I0
tt(I2
(I1
tttp1468
I1
ssg15
g1
(g10
tRp1469
((I0
(I0
I1
tt(I1
(I2
tttp1470
I1
ssg18
I1
sbs(S'grote "'
p1471
S"dreaded '"
p1472
tp1473
g5
(g2
g6
NtRp1474
(dp1475
g9
g1
(g10
tRp1476
((I0
(I0
tt(I1
(I1
tttp1477
I1
ssg15
g1
(g10
tRp1478
((I0
(I0
tt(I1
(I1
tttp1479
I1
ssg18
I1
sbs(g508
S'natural disasters'
p1480
tp1481
g5
(g2
g6
NtRp1482
(dp1483
g9
g1
(g10
tRp1484
((I0
(I0
tt(I1
(I0
tttp1485
I1
ssg15
g1
(g10
tRp1486
((I0
(I0
I1
tttp1487
I1
ssg18
I1
sbs(S'van orde stellen .'
p1488
S'of order .'
p1489
tp1490
g5
(g2
g6
NtRp1491
(dp1492
g9
g1
(g10
tRp1493
((g12
(I2
tt(I0
(I0
tt(I1
(I1
tt(I2
(I3
tttp1494
I1
ssg15
g1
(g10
tRp1495
((I0
(I0
tt(I1
(I1
tt(I2
g13
t(I3
(I2
tttp1496
I1
ssg18
I1
sbs(S'de burgers'
p1497
S'the people'
p1498
tp1499
g5
(g2
g6
NtRp1500
(dp1501
g9
g1
(g10
tRp1502
((I0
(I0
tt(I1
(I1
tttp1503
I1
ssg15
g1
(g10
tRp1504
((I0
(I0
tt(I1
(I1
tttp1505
I1
ssg18
I1
sbs(S'op'
S', in'
p1506
tp1507
g5
(g2
g6
NtRp1508
(dp1509
g9
g1
(g10
tRp1510
((I0
g13
t(I1
(I0
tttp1511
I1
ssg15
g1
(g10
tRp1512
((g12
(I0
tt(I0
(I1
tttp1513
I1
ssg18
I1
sbs(S'burgers van een aantal van'
p1514
S'people in a number of'
p1515
tp1516
g5
(g2
g6
NtRp1517
(dp1518
g9
g1
(g10
tRp1519
((I0
(I0
tt(I1
(I1
tt(I2
(I2
tt(I3
(I3
tt(I4
(I3
I4
tttp1520
I1
ssg15
g1
(g10
tRp1521
((I0
(I0
tt(I1
(I1
tt(I2
(I2
tt(I3
(I3
I4
tt(I4
(I4
tttp1522
I1
ssg18
I1
sbs(S'u heeft kunnen constateren , is de'
p1523
S'you will have seen , the'
p1524
tp1525
g5
(g2
g6
NtRp1526
(dp1527
g9
g1
(g10
tRp1528
((I0
(I0
tt(I1
(I2
tt(I2
(I1
I3
tt(I3
(I2
I3
tt(I4
(I4
I5
tt(I5
(I6
tttp1529
I1
ssg15
g1
(g10
tRp1530
((I0
(I0
tt(I1
(I2
tt(I2
(I1
I3
tt(I3
(I2
I3
tt(I4
(I4
tt(I5
(I4
tt(I6
(I5
tttp1531
I1
ssg18
I1
sbs(S'werd onderbroken ,'
p1532
S','
tp1533
g5
(g2
g6
NtRp1534
(dp1535
g9
g1
(g10
tRp1536
((g12
(I0
I1
tt(I0
(I2
tttp1537
I1
ssg15
g1
(g10
tRp1538
((I0
g13
t(I1
g13
t(I2
(I0
tttp1539
I1
ssg18
I1
sbs(S'noodweer dat'
p1540
S'the terrible storms'
p1541
tp1542
g5
(g2
g6
NtRp1543
(dp1544
g9
g1
(g10
tRp1545
((I0
(I1
tt(I1
(I0
tt(I2
(I0
tttp1546
I1
ssg15
g1
(g10
tRp1547
((I0
(I1
I2
tt(I1
(I0
tttp1548
I1
ssg18
I1
sbs(S'een'
p1549
S', as a'
p1550
tp1551
g5
(g2
g6
NtRp1552
(dp1553
g9
g1
(g10
tRp1554
((I0
g13
t(I1
g13
t(I2
(I0
tttp1555
I1
ssg15
g1
(g10
tRp1556
((g12
(I0
I1
tt(I0
(I2
tttp1557
I1
ssg18
I1
sbs(S'de slachtoffers'
S'the victims concerned'
p1558
tp1559
g5
(g2
g6
NtRp1560
(dp1561
g9
g1
(g10
tRp1562
((I0
(I0
tt(I1
(I1
tt(I2
g13
ttp1563
I1
ssg15
g1
(g10
tRp1564
((g12
(I2
tt(I0
(I0
tt(I1
(I1
tttp1565
I1
ssg18
I1
sbs(S'minuut stilte in acht )'
p1566
S"minute 's silence )"
p1567
tp1568
g5
(g2
g6
NtRp1569
(dp1570
g9
g1
(g10
tRp1571
((I0
(I0
tt(I1
(I1
tt(I2
(I1
I2
I3
tt(I3
(I4
tttp1572
I1
ssg15
g1
(g10
tRp1573
((I0
(I0
tt(I1
(I1
I2
tt(I2
(I2
tt(I3
(I2
tt(I4
(I3
tttp1574
I1
ssg18
I1
sbs(g1445
S'in'
p1575
tp1576
g5
(g2
g6
NtRp1577
(dp1578
g9
g1
(g10
tRp1579
((I0
(I0
tttp1580
I1
ssg15
g1
(g10
tRp1581
((I0
(I0
tttp1582
I1
ssg18
I1
sbs(S'mevrouw de voorzitter'
p1583
S'madam president'
p1584
tp1585
g5
(g2
g6
NtRp1586
(dp1587
g9
g1
(g10
tRp1588
((I0
(I0
tt(I1
(I1
I2
tttp1589
I1
ssg15
g1
(g10
tRp1590
((I0
(I0
tt(I1
(I1
tt(I2
(I1
tttp1591
I1
ssg18
I1
sbs(S'millenniumbug " uitgebleven .'
p1592
S"millennium bug ' failed to materialise ,"
p1593
tp1594
g5
(g2
g6
NtRp1595
(dp1596
g9
g1
(g10
tRp1597
((I0
(I0
tt(I1
(I0
I2
tt(I2
(I1
tt(I3
(I2
tt(I4
g13
t(I5
g13
t(I6
(I3
tttp1598
I1
ssg15
g1
(g10
tRp1599
((g12
(I4
I5
tt(I0
(I0
I1
tt(I1
(I2
tt(I2
(I1
I3
tt(I3
(I6
tttp1600
I1
ssg18
I1
sbs(S'het europees parlement'
p1601
S'the european parliament'
p1602
tp1603
g5
(g2
g6
NtRp1604
(dp1605
g9
g1
(g10
tRp1606
((I0
(I0
tt(I1
(I1
tt(I2
(I2
tttp1607
I1
ssg15
g1
(g10
tRp1608
((I0
(I0
tt(I1
(I1
tt(I2
(I2
tttp1609
I1
ssg18
I1
sbs(S'dat verschillende'
p1610
S'the terrible storms , in the various'
tp1611
g5
(g2
g6
NtRp1612
(dp1613
g9
g1
(g10
tRp1614
((I0
(I0
tt(I1
(I-1
tt(I2
(I-1
tt(I3
g13
t(I4
(I-6
tt(I5
(I-5
tt(I6
(I1
tttp1615
I1
ssg15
g1
(g10
tRp1616
((g12
(I1
I2
I3
I4
I5
tt(I0
(I0
tt(I1
(I6
tttp1617
I1
ssg18
I1
sbs(S'kunnen constateren , is de'
p1618
S'will have seen , the'
tp1619
g5
(g2
g6
NtRp1620
(dp1621
g9
g1
(g10
tRp1622
((I0
(I0
tt(I1
(I-1
I1
tt(I2
(I0
I1
tt(I3
(I2
I3
tt(I4
(I4
tttp1623
I1
ssg15
g1
(g10
tRp1624
((I0
(I0
I2
tt(I1
(I1
I2
tt(I2
(I3
tt(I3
(I3
tt(I4
(I4
tttp1625
I1
ssg18
I1
sbs(S'nu wil ik graag'
p1626
S'i should like to'
tp1627
g5
(g2
g6
NtRp1628
(dp1629
g9
g1
(g10
tRp1630
((g12
(I0
I3
tt(I0
(I2
tt(I1
(I1
tt(I2
(I1
tt(I3
(I1
tttp1631
I1
ssg15
g1
(g10
tRp1632
((I0
g13
t(I1
(I1
I2
I3
tt(I2
(I0
tt(I3
g13
ttp1633
I1
ssg18
I1
sbs(S'de voorzitter , ik wil een motie'
p1634
S'president , on a point'
p1635
tp1636
g5
(g2
g6
NtRp1637
(dp1638
g9
g1
(g10
tRp1639
((I0
(I0
I1
tt(I1
(I2
tt(I2
(I3
tt(I3
(I5
tt(I4
(I4
I6
tttp1640
I1
ssg15
g1
(g10
tRp1641
((I0
(I0
tt(I1
(I0
tt(I2
(I1
tt(I3
(I2
tt(I4
(I4
tt(I5
(I3
tt(I6
(I4
tttp1642
I1
ssg18
I1
sbs(S'aangegeven dat'
p1643
S'requested a debate on this subject in'
p1644
tp1645
g5
(g2
g6
NtRp1646
(dp1647
g9
g1
(g10
tRp1648
((I0
(I0
tt(I1
(I5
tt(I2
(I6
tt(I3
(I8
tt(I4
(I9
tt(I5
(I10
tt(I6
(I1
tttp1649
I1
ssg15
g1
(g10
tRp1650
((g12
(I1
I2
I3
I4
I5
tt(I0
(I0
tt(I1
(I6
tttp1651
I1
ssg18
I1
sbs(S'zoals u heeft kunnen constateren'
p1652
S'as you will have seen'
p1653
tp1654
g5
(g2
g6
NtRp1655
(dp1656
g9
g1
(g10
tRp1657
((I0
(I0
tt(I1
(I1
tt(I2
(I3
tt(I3
(I2
I4
tt(I4
(I3
I4
tttp1658
I1
ssg15
g1
(g10
tRp1659
((I0
(I0
tt(I1
(I1
tt(I2
(I3
tt(I3
(I2
I4
tt(I4
(I3
I4
tttp1660
I1
ssg18
I1
sbs(S'de zitting van'
p1661
S'the session of'
p1662
tp1663
g5
(g2
g6
NtRp1664
(dp1665
g9
g1
(g10
tRp1666
((I0
(I0
tt(I1
(I1
tt(I2
(I2
tttp1667
I1
ssg15
g1
(g10
tRp1668
((I0
(I0
tt(I1
(I1
tt(I2
(I2
tttp1669
I1
ssg18
I1
sbs(S'deze'
p1670
S'rise , then , for this'
p1671
tp1672
g5
(g2
g6
NtRp1673
(dp1674
g9
g1
(g10
tRp1675
((I0
g13
t(I1
g13
t(I2
g13
t(I3
g13
t(I4
g13
t(I5
(I0
tttp1676
I1
ssg15
g1
(g10
tRp1677
((g12
(I0
I1
I2
I3
I4
tt(I0
(I5
tttp1678
I1
ssg18
I1
sbs(S'de slachtoffers'
p1679
S'the victims'
p1680
tp1681
g5
(g2
g6
NtRp1682
(dp1683
g9
g1
(g10
tRp1684
((I0
(I0
tt(I1
(I1
tttp1685
I1
ssg15
g1
(g10
tRp1686
((I0
(I0
tt(I1
(I1
tttp1687
I1
ssg18
I1
sbs(g894
g464
tp1688
g5
(g2
g6
NtRp1689
(dp1690
g9
g1
(g10
tRp1691
((I0
(I0
tttp1692
I1
ssg15
g1
(g10
tRp1693
((I0
(I0
tttp1694
I1
ssg18
I1
sbs(S'17 december werd onderbroken , te zijn'
p1695
S'17 december 1999 ,'
tp1696
g5
(g2
g6
NtRp1697
(dp1698
g9
g1
(g10
tRp1699
((g12
(I2
I3
I5
I6
tt(I0
(I0
tt(I1
(I1
tt(I2
g13
t(I3
(I4
tttp1700
I1
ssg15
g1
(g10
tRp1701
((g12
(I2
tt(I0
(I0
tt(I1
(I1
tt(I2
g13
t(I3
g13
t(I4
(I3
tt(I5
g13
t(I6
g13
ttp1702
I1
ssg18
I1
sbs(S'parlement'
p1703
S'parliament'
p1704
tp1705
g5
(g2
g6
NtRp1706
(dp1707
g9
g1
(g10
tRp1708
((I0
(I0
tttp1709
I1
ssg15
g1
(g10
tRp1710
((I0
(I0
tttp1711
I1
ssg18
I1
sbs(S'het europees'
p1712
S'the european'
p1713
tp1714
g5
(g2
g6
NtRp1715
(dp1716
g9
g1
(g10
tRp1717
((I0
(I0
tt(I1
(I1
tttp1718
I1
ssg15
g1
(g10
tRp1719
((I0
(I0
tt(I1
(I1
tttp1720
I1
ssg18
I1
sbs(S'verzoek'
p1721
S'requested'
p1722
tp1723
g5
(g2
g6
NtRp1724
(dp1725
g9
g1
(g10
tRp1726
((I0
(I0
tttp1727
I1
ssg15
g1
(g10
tRp1728
((I0
(I0
tttp1729
I1
ssg18
I1
sbs(S', die op vrijdag 17 december werd'
p1730
S'adjourned on friday 17 december'
tp1731
g5
(g2
g6
NtRp1732
(dp1733
g9
g1
(g10
tRp1734
((g12
(I6
tt(I0
(I0
I1
tt(I1
(I2
tt(I2
(I3
tt(I3
(I4
tt(I4
(I5
tttp1735
I1
ssg15
g1
(g10
tRp1736
((I0
(I0
tt(I1
(I0
tt(I2
(I1
tt(I3
(I2
tt(I4
(I3
tt(I5
(I4
tt(I6
g13
ttp1737
I1
ssg18
I1
sbs(S'werd onderbroken , te'
p1738
S','
tp1739
g5
(g2
g6
NtRp1740
(dp1741
g9
g1
(g10
tRp1742
((g12
(I0
I1
I3
tt(I0
(I2
tttp1743
I1
ssg15
g1
(g10
tRp1744
((I0
g13
t(I1
g13
t(I2
(I0
tt(I3
g13
ttp1745
I1
ssg18
I1
sbs(S'hiermee'
p1746
S'all'
p1747
tp1748
g5
(g2
g6
NtRp1749
(dp1750
g9
g1
(g10
tRp1751
((I0
(I0
tttp1752
I1
ssg15
g1
(g10
tRp1753
((I0
(I0
tttp1754
I1
ssg18
I1
sbs(S'stilte in acht'
p1755
S"'s silence"
tp1756
g5
(g2
g6
NtRp1757
(dp1758
g9
g1
(g10
tRp1759
((I0
(I0
tt(I1
(I0
I1
I2
tttp1760
I1
ssg15
g1
(g10
tRp1761
((I0
(I0
I1
tt(I1
(I1
tt(I2
(I1
tttp1762
I1
ssg18
I1
sbs(S'een aantal'
S', as a number of'
p1763
tp1764
g5
(g2
g6
NtRp1765
(dp1766
g9
g1
(g10
tRp1767
((I0
g13
t(I1
g13
t(I2
(I0
tt(I3
(I1
tt(I4
(I1
tttp1768
I1
ssg15
g1
(g10
tRp1769
((g12
(I0
I1
tt(I0
(I2
tt(I1
(I3
I4
tttp1770
I1
ssg18
I1
sbs(S'de zitting'
p1771
S'the session'
p1772
tp1773
g5
(g2
g6
NtRp1774
(dp1775
g9
g1
(g10
tRp1776
((I0
(I0
tt(I1
(I1
tttp1777
I2
ssg15
g1
(g10
tRp1778
((I0
(I0
tt(I1
(I1
tttp1779
I2
ssg18
I2
sbs(S'een goede vakantie heeft gehad'
S'a pleasant festive period'
p1780
tp1781
g5
(g2
g6
NtRp1782
(dp1783
g9
g1
(g10
tRp1784
((I0
(I0
tt(I1
(I1
tt(I2
(I2
I3
I4
tt(I3
g13
ttp1785
I1
ssg15
g1
(g10
tRp1786
((g12
(I3
tt(I0
(I0
tt(I1
(I1
tt(I2
(I2
tt(I3
(I2
tt(I4
(I2
tttp1787
I1
ssg18
I1
sbs(g603
S'although , as'
p1788
tp1789
g5
(g2
g6
NtRp1790
(dp1791
g9
g1
(g10
tRp1792
((I0
g13
t(I1
g13
t(I2
(I0
tttp1793
I1
ssg15
g1
(g10
tRp1794
((g12
(I0
I1
tt(I0
(I2
tttp1795
I1
ssg18
I1
sbs(S'van het europees'
p1796
S'of the european'
p1797
tp1798
g5
(g2
g6
NtRp1799
(dp1800
g9
g1
(g10
tRp1801
((I0
(I0
tt(I1
(I1
tt(I2
(I2
tttp1802
I1
ssg15
g1
(g10
tRp1803
((I0
(I0
tt(I1
(I1
tt(I2
(I2
tttp1804
I1
ssg18
I1
sbs(S'. de'
S'to materialise , still the'
p1805
tp1806
g5
(g2
g6
NtRp1807
(dp1808
g9
g1
(g10
tRp1809
((I0
g13
t(I1
g13
t(I2
(I0
tt(I3
g13
t(I4
(I1
tttp1810
I1
ssg15
g1
(g10
tRp1811
((g12
(I0
I1
I3
tt(I0
(I2
tt(I1
(I4
tttp1812
I1
ssg18
I1
sbs(S'wil een motie van orde stellen'
p1813
S'a point of order'
tp1814
g5
(g2
g6
NtRp1815
(dp1816
g9
g1
(g10
tRp1817
((g12
(I5
tt(I0
(I1
tt(I1
(I0
I2
tt(I2
(I3
tt(I3
(I4
tttp1818
I1
ssg15
g1
(g10
tRp1819
((I0
(I1
tt(I1
(I0
tt(I2
(I1
tt(I3
(I2
tt(I4
(I3
tt(I5
g13
ttp1820
I1
ssg18
I1
sbs(S'zoals u'
p1821
S'as you'
p1822
tp1823
g5
(g2
g6
NtRp1824
(dp1825
g9
g1
(g10
tRp1826
((I0
(I0
tt(I1
(I1
tttp1827
I1
ssg15
g1
(g10
tRp1828
((I0
(I0
tt(I1
(I1
tttp1829
I1
ssg18
I1
sbs(S', die op vrijdag'
p1830
S'adjourned on friday'
p1831
tp1832
g5
(g2
g6
NtRp1833
(dp1834
g9
g1
(g10
tRp1835
((I0
(I0
I1
tt(I1
(I2
tt(I2
(I3
tttp1836
I1
ssg15
g1
(g10
tRp1837
((I0
(I0
tt(I1
(I0
tt(I2
(I1
tt(I3
(I2
tttp1838
I1
ssg18
I1
sbs(S'een goede vakantie heeft gehad'
S'enjoyed a pleasant festive period'
p1839
tp1840
g5
(g2
g6
NtRp1841
(dp1842
g9
g1
(g10
tRp1843
((I0
g13
t(I1
(I0
tt(I2
(I1
tt(I3
(I2
I3
I4
tt(I4
g13
ttp1844
I1
ssg15
g1
(g10
tRp1845
((g12
(I0
I4
tt(I0
(I1
tt(I1
(I2
tt(I2
(I3
tt(I3
(I3
tt(I4
(I3
tttp1846
I1
ssg18
I1
sbs(S'van de'
S'of all the'
p1847
tp1848
g5
(g2
g6
NtRp1849
(dp1850
g9
g1
(g10
tRp1851
((I0
(I0
tt(I1
(I6
tt(I2
(I1
tttp1852
I1
ssg15
g1
(g10
tRp1853
((g12
(I1
tt(I0
(I0
tt(I1
(I2
tttp1854
I1
ssg18
I1
sbs(S', is'
p1855
S','
tp1856
g5
(g2
g6
NtRp1857
(dp1858
g9
g1
(g10
tRp1859
((I0
(I0
I1
tttp1860
I1
ssg15
g1
(g10
tRp1861
((I0
(I0
tt(I1
(I0
tttp1862
I1
ssg18
I1
sbs(S'onze lidstaten'
S'countries suffered a series'
p1863
tp1864
g5
(g2
g6
NtRp1865
(dp1866
g9
g1
(g10
tRp1867
((I0
(I1
tt(I1
(I4
tt(I2
(I0
tt(I3
g13
ttp1868
I1
ssg15
g1
(g10
tRp1869
((g12
(I1
I3
tt(I0
(I2
tt(I1
(I0
tttp1870
I1
ssg18
I1
sbs(S'parlement , die'
p1871
S'parliament adjourned'
p1872
tp1873
g5
(g2
g6
NtRp1874
(dp1875
g9
g1
(g10
tRp1876
((I0
(I0
tt(I1
(I1
I2
tttp1877
I1
ssg15
g1
(g10
tRp1878
((I0
(I0
tt(I1
(I1
tt(I2
(I1
tttp1879
I1
ssg18
I1
sbs(g1670
S'for this'
p1880
tp1881
g5
(g2
g6
NtRp1882
(dp1883
g9
g1
(g10
tRp1884
((I0
g13
t(I1
(I0
tttp1885
I1
ssg15
g1
(g10
tRp1886
((g12
(I0
tt(I0
(I1
tttp1887
I1
ssg18
I1
sbs(S'.'
S'to materialise , still'
p1888
tp1889
g5
(g2
g6
NtRp1890
(dp1891
g9
g1
(g10
tRp1892
((I0
g13
t(I1
g13
t(I2
(I0
tt(I3
g13
ttp1893
I1
ssg15
g1
(g10
tRp1894
((g12
(I0
I1
I3
tt(I0
(I2
tttp1895
I1
ssg18
I1
sbs(S'gelukkig nieuwjaar en'
p1896
S'happy new year in'
p1897
tp1898
g5
(g2
g6
NtRp1899
(dp1900
g9
g1
(g10
tRp1901
((I0
(I0
I1
tt(I1
(I1
tt(I2
(I1
tt(I3
(I2
tttp1902
I1
ssg15
g1
(g10
tRp1903
((I0
(I0
tt(I1
(I0
I1
I2
tt(I2
(I3
tttp1904
I1
ssg18
I1
sbs(S'onderbroken , te zijn hervat . ik'
p1905
S', and i'
tp1906
g5
(g2
g6
NtRp1907
(dp1908
g9
g1
(g10
tRp1909
((g12
(I0
I2
I3
I4
tt(I0
(I1
tt(I1
(I5
tt(I2
(I6
tttp1910
I1
ssg15
g1
(g10
tRp1911
((I0
g13
t(I1
(I0
tt(I2
g13
t(I3
g13
t(I4
g13
t(I5
(I1
tt(I6
(I2
tttp1912
I1
ssg18
I1
sbs(S'lidstaten van de'
p1913
S'countries of the'
p1914
tp1915
g5
(g2
g6
NtRp1916
(dp1917
g9
g1
(g10
tRp1918
((I0
(I0
tt(I1
(I1
tt(I2
(I2
tttp1919
I1
ssg15
g1
(g10
tRp1920
((I0
(I0
tt(I1
(I1
tt(I2
(I2
tttp1921
I1
ssg18
I1
sbs(S','
S'1999 ,'
p1922
tp1923
g5
(g2
g6
NtRp1924
(dp1925
g9
g1
(g10
tRp1926
((I0
g13
t(I1
(I0
tttp1927
I1
ssg15
g1
(g10
tRp1928
((g12
(I0
tt(I0
(I1
tttp1929
I1
ssg18
I1
sbs(g508
S'of natural disasters that'
p1930
tp1931
g5
(g2
g6
NtRp1932
(dp1933
g9
g1
(g10
tRp1934
((I0
g13
t(I1
(I0
tt(I2
(I0
tt(I3
g13
ttp1935
I1
ssg15
g1
(g10
tRp1936
((g12
(I0
I3
tt(I0
(I1
I2
tttp1937
I1
ssg18
I1
sbs(S'hervat .'
p1938
g919
tp1939
g5
(g2
g6
NtRp1940
(dp1941
g9
g1
(g10
tRp1942
((g12
(I0
tt(I0
(I1
tttp1943
I1
ssg15
g1
(g10
tRp1944
((I0
g13
t(I1
(I0
tttp1945
I1
ssg18
I1
sbs(S'een minuut stilte in acht )'
p1946
S"a minute 's silence )"
p1947
tp1948
g5
(g2
g6
NtRp1949
(dp1950
g9
g1
(g10
tRp1951
((I0
(I0
tt(I1
(I1
tt(I2
(I2
tt(I3
(I2
I3
I4
tt(I4
(I5
tttp1952
I1
ssg15
g1
(g10
tRp1953
((I0
(I0
tt(I1
(I1
tt(I2
(I2
I3
tt(I3
(I3
tt(I4
(I3
tt(I5
(I4
tttp1954
I1
ssg18
I1
sbs(S'goede'
p1955
S'pleasant'
p1956
tp1957
g5
(g2
g6
NtRp1958
(dp1959
g9
g1
(g10
tRp1960
((I0
(I0
tttp1961
I1
ssg15
g1
(g10
tRp1962
((I0
(I0
tttp1963
I1
ssg18
I1
sbs(S'een debat wilt'
p1964
S'a debate'
tp1965
g5
(g2
g6
NtRp1966
(dp1967
g9
g1
(g10
tRp1968
((g12
(I2
tt(I0
(I0
tt(I1
(I1
tttp1969
I1
ssg15
g1
(g10
tRp1970
((I0
(I0
tt(I1
(I1
tt(I2
g13
ttp1971
I1
ssg18
I1
sbs(S'aantal'
p1972
S'number of'
tp1973
g5
(g2
g6
NtRp1974
(dp1975
g9
g1
(g10
tRp1976
((I0
(I0
tt(I1
(I0
tttp1977
I1
ssg15
g1
(g10
tRp1978
((I0
(I0
I1
tttp1979
I1
ssg18
I1
sbs(S'te zijn hervat . ik'
p1980
S'and i'
tp1981
g5
(g2
g6
NtRp1982
(dp1983
g9
g1
(g10
tRp1984
((g12
(I0
I1
I2
tt(I0
(I3
tt(I1
(I4
tttp1985
I1
ssg15
g1
(g10
tRp1986
((I0
g13
t(I1
g13
t(I2
g13
t(I3
(I0
tt(I4
(I1
tttp1987
I1
ssg18
I1
sbs(S"van een aantal collega ' s"
p1988
S'a number of members have'
tp1989
g5
(g2
g6
NtRp1990
(dp1991
g9
g1
(g10
tRp1992
((g12
(I0
tt(I0
(I1
tt(I1
(I2
tt(I2
(I2
tt(I3
(I3
I4
I5
tt(I4
(I5
tttp1993
I1
ssg15
g1
(g10
tRp1994
((I0
g13
t(I1
(I0
tt(I2
(I1
I2
tt(I3
(I3
tt(I4
(I3
tt(I5
(I3
I4
tttp1995
I1
ssg18
I1
sbs(S'en hoop dat u een'
p1996
S'in the hope that you enjoyed a'
p1997
tp1998
g5
(g2
g6
NtRp1999
(dp2000
g9
g1
(g10
tRp2001
((I0
(I0
tt(I1
g13
t(I2
(I1
tt(I3
(I2
tt(I4
(I3
tt(I5
g13
t(I6
(I4
tttp2002
I1
ssg15
g1
(g10
tRp2003
((g12
(I1
I5
tt(I0
(I0
tt(I1
(I2
tt(I2
(I3
tt(I3
(I4
tt(I4
(I6
tttp2004
I1
ssg18
I1
sbs(S'te zijn hervat .'
p2005
g919
tp2006
g5
(g2
g6
NtRp2007
(dp2008
g9
g1
(g10
tRp2009
((g12
(I0
I1
I2
tt(I0
(I3
tttp2010
I1
ssg15
g1
(g10
tRp2011
((I0
g13
t(I1
g13
t(I2
g13
t(I3
(I0
tttp2012
I1
ssg18
I1
sbs(S', is de'
p2013
S', the'
p2014
tp2015
g5
(g2
g6
NtRp2016
(dp2017
g9
g1
(g10
tRp2018
((I0
(I0
I1
tt(I1
(I2
tttp2019
I1
ssg15
g1
(g10
tRp2020
((I0
(I0
tt(I1
(I0
tt(I2
(I1
tttp2021
I1
ssg18
I1
sbs(S'onderbroken ,'
S'1999 ,'
tp2022
g5
(g2
g6
NtRp2023
(dp2024
g9
g1
(g10
tRp2025
((g12
(I0
tt(I0
g13
t(I1
(I1
tttp2026
I1
ssg15
g1
(g10
tRp2027
((g12
(I0
tt(I0
g13
t(I1
(I1
tttp2028
I1
ssg18
I1
sbs(S'van de slachtoffers . ik doel'
p2029
S'of all the victims concerned ,'
tp2030
g5
(g2
g6
NtRp2031
(dp2032
g9
g1
(g10
tRp2033
((g12
(I4
I5
tt(I0
(I0
tt(I1
(I6
tt(I2
(I1
tt(I3
(I2
tt(I4
g13
t(I5
(I3
tttp2034
I1
ssg15
g1
(g10
tRp2035
((g12
(I1
I4
tt(I0
(I0
tt(I1
(I2
tt(I2
(I3
tt(I3
(I5
tt(I4
g13
t(I5
g13
ttp2036
I1
ssg18
I1
sbs(S'ik verklaar de zitting'
p2037
S'i declare resumed the session'
p2038
tp2039
g5
(g2
g6
NtRp2040
(dp2041
g9
g1
(g10
tRp2042
((I0
(I0
tt(I1
(I1
tt(I2
(I1
tt(I3
(I2
tt(I4
(I3
tttp2043
I1
ssg15
g1
(g10
tRp2044
((I0
(I0
tt(I1
(I1
I2
tt(I2
(I3
tt(I3
(I4
tttp2045
I1
ssg18
I1
sbs(S'. de burgers van'
S'to materialise , still the people in'
p2046
tp2047
g5
(g2
g6
NtRp2048
(dp2049
g9
g1
(g10
tRp2050
((I0
g13
t(I1
g13
t(I2
(I0
tt(I3
g13
t(I4
(I1
tt(I5
(I2
tt(I6
(I3
tttp2051
I1
ssg15
g1
(g10
tRp2052
((g12
(I0
I1
I3
tt(I0
(I2
tt(I1
(I4
tt(I2
(I5
tt(I3
(I6
tttp2053
I1
ssg18
I1
sbs(S'aantal van onze'
p2054
S'number of countries suffered a'
p2055
tp2056
g5
(g2
g6
NtRp2057
(dp2058
g9
g1
(g10
tRp2059
((I0
(I0
tt(I1
(I0
I1
tt(I2
(I3
tt(I3
(I6
tt(I4
(I2
tttp2060
I1
ssg15
g1
(g10
tRp2061
((g12
(I2
I3
tt(I0
(I0
I1
tt(I1
(I1
tt(I2
(I4
tttp2062
I1
ssg18
I1
sbs(S"aantal collega ' s"
p2063
S'number of members have'
p2064
tp2065
g5
(g2
g6
NtRp2066
(dp2067
g9
g1
(g10
tRp2068
((I0
(I0
tt(I1
(I0
tt(I2
(I1
I2
I3
tt(I3
(I3
tttp2069
I1
ssg15
g1
(g10
tRp2070
((I0
(I0
I1
tt(I1
(I2
tt(I2
(I2
tt(I3
(I2
I3
tttp2071
I1
ssg18
I1
sbs(S'dat u'
S'in the course of'
tp2072
g5
(g2
g6
NtRp2073
(dp2074
g9
g1
(g10
tRp2075
((g12
(I1
tt(I0
(I0
tt(I1
g13
t(I2
g13
t(I3
g13
ttp2076
I1
ssg15
g1
(g10
tRp2077
((g12
(I1
I2
I3
tt(I0
(I0
tt(I1
g13
ttp2078
I1
ssg18
I1
sbs(S'ik wil u vragen'
S'please rise , then'
p2079
tp2080
g5
(g2
g6
NtRp2081
(dp2082
g9
g1
(g10
tRp2083
((I0
(I0
I1
I2
I3
tt(I1
g13
t(I2
g13
t(I3
g13
ttp2084
I1
ssg15
g1
(g10
tRp2085
((g12
(I1
I2
I3
tt(I0
(I0
tt(I1
(I0
tt(I2
(I0
tt(I3
(I0
tttp2086
I1
ssg18
I1
sbs(S'ik'
p2087
S'i'
tp2088
g5
(g2
g6
NtRp2089
(dp2090
g9
g1
(g10
tRp2091
((I0
(I0
tttp2092
I3
ssg15
g1
(g10
tRp2093
((I0
(I0
tttp2094
I3
ssg18
I3
sbs(S'onderbroken ,'
p2095
S','
tp2096
g5
(g2
g6
NtRp2097
(dp2098
g9
g1
(g10
tRp2099
((g12
(I0
tt(I0
(I1
tttp2100
I1
ssg15
g1
(g10
tRp2101
((I0
g13
t(I1
(I0
tttp2102
I1
ssg18
I1
sbs(S'. ik doel'
p2103
S','
tp2104
g5
(g2
g6
NtRp2105
(dp2106
g9
g1
(g10
tRp2107
((g12
(I1
I2
tt(I0
(I0
tttp2108
I1
ssg15
g1
(g10
tRp2109
((I0
(I0
tt(I1
g13
t(I2
g13
ttp2110
I1
ssg18
I1
sbs(S'de grote " millenniumbug " uitgebleven'
p2111
S"the dreaded ' millennium bug ' failed"
p2112
tp2113
g5
(g2
g6
NtRp2114
(dp2115
g9
g1
(g10
tRp2116
((I0
(I0
tt(I1
(I1
tt(I2
(I2
tt(I3
(I3
tt(I4
(I3
I5
tt(I5
(I4
tt(I6
(I5
tttp2117
I1
ssg15
g1
(g10
tRp2118
((I0
(I0
tt(I1
(I1
tt(I2
(I2
tt(I3
(I3
I4
tt(I4
(I5
tt(I5
(I4
I6
tttp2119
I1
ssg18
I1
sbs(S'dat u een'
p2120
S'that you enjoyed a'
p2121
tp2122
g5
(g2
g6
NtRp2123
(dp2124
g9
g1
(g10
tRp2125
((I0
(I0
tt(I1
(I1
tt(I2
g13
t(I3
(I2
tttp2126
I1
ssg15
g1
(g10
tRp2127
((g12
(I2
tt(I0
(I0
tt(I1
(I1
tt(I2
(I3
tttp2128
I1
ssg18
I1
sbs(S'ik wil een motie van orde'
p2129
S'on a point of order'
p2130
tp2131
g5
(g2
g6
NtRp2132
(dp2133
g9
g1
(g10
tRp2134
((I0
(I0
tt(I1
(I2
tt(I2
(I1
I3
tt(I3
(I4
tt(I4
(I5
tttp2135
I1
ssg15
g1
(g10
tRp2136
((I0
(I0
tt(I1
(I2
tt(I2
(I1
tt(I3
(I2
tt(I4
(I3
tt(I5
(I4
tttp2137
I1
ssg18
I1
sbs(S'de burgers van een'
S'still the people in a'
p2138
tp2139
g5
(g2
g6
NtRp2140
(dp2141
g9
g1
(g10
tRp2142
((I0
g13
t(I1
(I0
tt(I2
(I1
tt(I3
(I2
tt(I4
(I3
tttp2143
I1
ssg15
g1
(g10
tRp2144
((g12
(I0
tt(I0
(I1
tt(I1
(I2
tt(I2
(I3
tt(I3
(I4
tttp2145
I1
ssg18
I1
sbs(S'u een goede'
p2146
S'you enjoyed a pleasant'
p2147
tp2148
g5
(g2
g6
NtRp2149
(dp2150
g9
g1
(g10
tRp2151
((I0
(I0
tt(I1
g13
t(I2
(I1
tt(I3
(I2
tttp2152
I1
ssg15
g1
(g10
tRp2153
((g12
(I1
tt(I0
(I0
tt(I1
(I2
tt(I2
(I3
tttp2154
I1
ssg18
I1
sbs(S'van een aantal'
S', as a number of'
tp2155
g5
(g2
g6
NtRp2156
(dp2157
g9
g1
(g10
tRp2158
((g12
(I0
tt(I0
g13
t(I1
g13
t(I2
(I1
tt(I3
(I2
tt(I4
(I2
tttp2159
I1
ssg15
g1
(g10
tRp2160
((g12
(I0
I1
tt(I0
g13
t(I1
(I2
tt(I2
(I3
I4
tttp2161
I1
ssg18
I1
sbs(S'hoop dat u een goede'
S'the hope that you enjoyed a pleasant'
p2162
tp2163
g5
(g2
g6
NtRp2164
(dp2165
g9
g1
(g10
tRp2166
((I0
g13
t(I1
(I0
tt(I2
(I1
tt(I3
(I2
tt(I4
g13
t(I5
(I3
tt(I6
(I4
tttp2167
I1
ssg15
g1
(g10
tRp2168
((g12
(I0
I4
tt(I0
(I1
tt(I1
(I2
tt(I2
(I3
tt(I3
(I5
tt(I4
(I6
tttp2169
I1
ssg18
I1
sbs(S'verschillende lidstaten'
p2170
S'various countries'
p2171
tp2172
g5
(g2
g6
NtRp2173
(dp2174
g9
g1
(g10
tRp2175
((I0
(I0
tt(I1
(I1
tttp2176
I1
ssg15
g1
(g10
tRp2177
((I0
(I0
tt(I1
(I1
tttp2178
I1
ssg18
I1
sbs(S'zoals u'
S'although , as you'
p2179
tp2180
g5
(g2
g6
NtRp2181
(dp2182
g9
g1
(g10
tRp2183
((I0
g13
t(I1
g13
t(I2
(I0
tt(I3
(I1
tttp2184
I1
ssg15
g1
(g10
tRp2185
((g12
(I0
I1
tt(I0
(I2
tt(I1
(I3
tttp2186
I1
ssg18
I1
sbs(S'van orde stellen'
p2187
S'of order'
tp2188
g5
(g2
g6
NtRp2189
(dp2190
g9
g1
(g10
tRp2191
((g12
(I2
tt(I0
(I0
tt(I1
(I1
tttp2192
I1
ssg15
g1
(g10
tRp2193
((I0
(I0
tt(I1
(I1
tt(I2
g13
ttp2194
I1
ssg18
I1
sbs(S'op vrijdag 17 december'
S'on friday 17 december 1999'
p2195
tp2196
g5
(g2
g6
NtRp2197
(dp2198
g9
g1
(g10
tRp2199
((I0
(I0
tt(I1
(I1
tt(I2
(I2
tt(I3
(I3
tt(I4
g13
ttp2200
I1
ssg15
g1
(g10
tRp2201
((g12
(I4
tt(I0
(I0
tt(I1
(I1
tt(I2
(I2
tt(I3
(I3
tttp2202
I1
ssg18
I1
sbs(S'ik verklaar de zitting van het'
p2203
S'i declare resumed the session of the'
p2204
tp2205
g5
(g2
g6
NtRp2206
(dp2207
g9
g1
(g10
tRp2208
((I0
(I0
tt(I1
(I1
tt(I2
(I1
tt(I3
(I2
tt(I4
(I3
tt(I5
(I4
tt(I6
(I5
tttp2209
I1
ssg15
g1
(g10
tRp2210
((I0
(I0
tt(I1
(I1
I2
tt(I2
(I3
tt(I3
(I4
tt(I4
(I5
tt(I5
(I6
tttp2211
I1
ssg18
I1
sbs(S'. ik doel'
S'concerned ,'
tp2212
g5
(g2
g6
NtRp2213
(dp2214
g9
g1
(g10
tRp2215
((g12
(I1
I2
tt(I0
g13
t(I1
(I0
tttp2216
I1
ssg15
g1
(g10
tRp2217
((g12
(I0
tt(I0
(I1
tt(I1
g13
t(I2
g13
ttp2218
I1
ssg18
I1
sbs(S'verzoek van'
p2219
g1722
tp2220
g5
(g2
g6
NtRp2221
(dp2222
g9
g1
(g10
tRp2223
((g12
(I1
tt(I0
(I0
tttp2224
I1
ssg15
g1
(g10
tRp2225
((I0
(I0
tt(I1
g13
ttp2226
I1
ssg18
I1
sbs(S', ik wil een motie van'
p2227
S', on a point of'
p2228
tp2229
g5
(g2
g6
NtRp2230
(dp2231
g9
g1
(g10
tRp2232
((I0
(I0
tt(I1
(I1
tt(I2
(I3
tt(I3
(I2
I4
tt(I4
(I5
tttp2233
I1
ssg15
g1
(g10
tRp2234
((I0
(I0
tt(I1
(I1
tt(I2
(I3
tt(I3
(I2
tt(I4
(I3
tt(I5
(I4
tttp2235
I1
ssg18
I1
sbs(S'werd onderbroken , te zijn hervat .'
p2236
S', and'
tp2237
g5
(g2
g6
NtRp2238
(dp2239
g9
g1
(g10
tRp2240
((g12
(I0
I1
I3
I4
I5
tt(I0
(I2
tt(I1
(I6
tttp2241
I1
ssg15
g1
(g10
tRp2242
((I0
g13
t(I1
g13
t(I2
(I0
tt(I3
g13
t(I4
g13
t(I5
g13
t(I6
(I1
tttp2243
I1
ssg18
I1
sbs(S'zijn daarentegen'
S'that truly were'
p2244
tp2245
g5
(g2
g6
NtRp2246
(dp2247
g9
g1
(g10
tRp2248
((I0
g13
t(I1
(I1
tt(I2
(I0
tttp2249
I1
ssg15
g1
(g10
tRp2250
((g12
(I0
tt(I0
(I2
tt(I1
(I1
tttp2251
I1
ssg18
I1
sbs(S'zoals u heeft kunnen constateren'
S', as you will have seen'
p2252
tp2253
g5
(g2
g6
NtRp2254
(dp2255
g9
g1
(g10
tRp2256
((I0
g13
t(I1
(I0
tt(I2
(I1
tt(I3
(I3
tt(I4
(I2
I4
tt(I5
(I3
I4
tttp2257
I1
ssg15
g1
(g10
tRp2258
((g12
(I0
tt(I0
(I1
tt(I1
(I2
tt(I2
(I4
tt(I3
(I3
I5
tt(I4
(I4
I5
tttp2259
I1
ssg18
I1
sbs(S'heeft'
p2260
S'have'
p2261
tp2262
g5
(g2
g6
NtRp2263
(dp2264
g9
g1
(g10
tRp2265
((I0
(I0
tttp2266
I1
ssg15
g1
(g10
tRp2267
((I0
(I0
tttp2268
I1
ssg18
I1
sbs(S'. ik doel hiermee'
p2269
S'all the victims concerned ,'
tp2270
g5
(g2
g6
NtRp2271
(dp2272
g9
g1
(g10
tRp2273
((g12
(I1
I2
tt(I0
(I3
tt(I1
(I-2
tt(I2
(I-1
tt(I3
g13
t(I4
(I0
tttp2274
I1
ssg15
g1
(g10
tRp2275
((g12
(I1
I2
I3
tt(I0
(I4
tt(I1
g13
t(I2
g13
t(I3
(I0
tttp2276
I1
ssg18
I1
sbs(S'december werd'
S'december 1999'
tp2277
g5
(g2
g6
NtRp2278
(dp2279
g9
g1
(g10
tRp2280
((g12
(I1
tt(I0
(I0
tt(I1
g13
ttp2281
I1
ssg15
g1
(g10
tRp2282
((g12
(I1
tt(I0
(I0
tt(I1
g13
ttp2283
I1
ssg18
I1
sbs(S'u heeft kunnen constateren'
p2284
S'you will have seen'
p2285
tp2286
g5
(g2
g6
NtRp2287
(dp2288
g9
g1
(g10
tRp2289
((I0
(I0
tt(I1
(I2
tt(I2
(I1
I3
tt(I3
(I2
I3
tttp2290
I1
ssg15
g1
(g10
tRp2291
((I0
(I0
tt(I1
(I2
tt(I2
(I1
I3
tt(I3
(I2
I3
tttp2292
I1
ssg18
I1
sbs(S'de burgers van een'
p2293
S'the people in a'
p2294
tp2295
g5
(g2
g6
NtRp2296
(dp2297
g9
g1
(g10
tRp2298
((I0
(I0
tt(I1
(I1
tt(I2
(I2
tt(I3
(I3
tttp2299
I1
ssg15
g1
(g10
tRp2300
((I0
(I0
tt(I1
(I1
tt(I2
(I2
tt(I3
(I3
tttp2301
I1
ssg18
I1
sbs(S"een aantal collega ' s"
p2302
S'a number of members have'
p2303
tp2304
g5
(g2
g6
NtRp2305
(dp2306
g9
g1
(g10
tRp2307
((I0
(I0
tt(I1
(I1
tt(I2
(I1
tt(I3
(I2
I3
I4
tt(I4
(I4
tttp2308
I1
ssg15
g1
(g10
tRp2309
((I0
(I0
tt(I1
(I1
I2
tt(I2
(I3
tt(I3
(I3
tt(I4
(I3
I4
tttp2310
I1
ssg18
I1
sbs(S'minuut stilte in acht'
p2311
S"minute 's silence"
tp2312
g5
(g2
g6
NtRp2313
(dp2314
g9
g1
(g10
tRp2315
((I0
(I0
tt(I1
(I1
tt(I2
(I1
I2
I3
tttp2316
I1
ssg15
g1
(g10
tRp2317
((I0
(I0
tt(I1
(I1
I2
tt(I2
(I2
tt(I3
(I2
tttp2318
I1
ssg18
I1
sbs(S'.'
S', still'
p2319
tp2320
g5
(g2
g6
NtRp2321
(dp2322
g9
g1
(g10
tRp2323
((I0
(I0
tt(I1
g13
ttp2324
I1
ssg15
g1
(g10
tRp2325
((g12
(I1
tt(I0
(I0
tttp2326
I1
ssg18
I1
sbs(S'het parlement'
p2327
S'the house'
p2328
tp2329
g5
(g2
g6
NtRp2330
(dp2331
g9
g1
(g10
tRp2332
((I0
(I0
tt(I1
(I1
tttp2333
I1
ssg15
g1
(g10
tRp2334
((I0
(I0
tt(I1
(I1
tttp2335
I1
ssg18
I1
sbs(S'de zitting van het europees parlement'
p2336
S'the session of the european parliament'
p2337
tp2338
g5
(g2
g6
NtRp2339
(dp2340
g9
g1
(g10
tRp2341
((I0
(I0
tt(I1
(I1
tt(I2
(I2
tt(I3
(I3
tt(I4
(I4
tt(I5
(I5
tttp2342
I1
ssg15
g1
(g10
tRp2343
((I0
(I0
tt(I1
(I1
tt(I2
(I2
tt(I3
(I3
tt(I4
(I4
tt(I5
(I5
tttp2344
I1
ssg18
I1
sbs(S'doel hiermee'
p2345
g1747
tp2346
g5
(g2
g6
NtRp2347
(dp2348
g9
g1
(g10
tRp2349
((g12
(I0
tt(I0
(I1
tttp2350
I1
ssg15
g1
(g10
tRp2351
((I0
g13
t(I1
(I0
tttp2352
I1
ssg18
I1
sbs(S'grote " millenniumbug " uitgebleven'
S"dreaded ' millennium bug ' failed to"
p2353
tp2354
g5
(g2
g6
NtRp2355
(dp2356
g9
g1
(g10
tRp2357
((I0
(I0
tt(I1
(I1
tt(I2
(I2
tt(I3
(I2
I4
tt(I4
(I3
tt(I5
(I4
tt(I6
g13
ttp2358
I1
ssg15
g1
(g10
tRp2359
((g12
(I6
tt(I0
(I0
tt(I1
(I1
tt(I2
(I2
I3
tt(I3
(I4
tt(I4
(I3
I5
tttp2360
I1
ssg18
I1
sbs(S'grote'
p2361
S'dreaded'
p2362
tp2363
g5
(g2
g6
NtRp2364
(dp2365
g9
g1
(g10
tRp2366
((I0
(I0
tttp2367
I1
ssg15
g1
(g10
tRp2368
((I0
(I0
tttp2369
I1
ssg18
I1
sbs(S'orde stellen'
p2370
g562
tp2371
g5
(g2
g6
NtRp2372
(dp2373
g9
g1
(g10
tRp2374
((g12
(I1
tt(I0
(I0
tttp2375
I1
ssg15
g1
(g10
tRp2376
((I0
(I0
tt(I1
g13
ttp2377
I1
ssg18
I1
sbs(S'ik doel hiermee'
p2378
g1747
tp2379
g5
(g2
g6
NtRp2380
(dp2381
g9
g1
(g10
tRp2382
((g12
(I0
I1
tt(I0
(I2
tttp2383
I1
ssg15
g1
(g10
tRp2384
((I0
g13
t(I1
g13
t(I2
(I0
tttp2385
I1
ssg18
I1
sbs(S'december werd onderbroken , te'
p2386
S'december 1999 ,'
tp2387
g5
(g2
g6
NtRp2388
(dp2389
g9
g1
(g10
tRp2390
((g12
(I1
I2
I4
tt(I0
(I0
tt(I1
g13
t(I2
(I3
tttp2391
I1
ssg15
g1
(g10
tRp2392
((g12
(I1
tt(I0
(I0
tt(I1
g13
t(I2
g13
t(I3
(I2
tt(I4
g13
ttp2393
I1
ssg18
I1
sbs(S'de burgers van een aantal van'
S'still the people in a number of'
p2394
tp2395
g5
(g2
g6
NtRp2396
(dp2397
g9
g1
(g10
tRp2398
((I0
g13
t(I1
(I0
tt(I2
(I1
tt(I3
(I2
tt(I4
(I3
tt(I5
(I4
tt(I6
(I4
I5
tttp2399
I1
ssg15
g1
(g10
tRp2400
((g12
(I0
tt(I0
(I1
tt(I1
(I2
tt(I2
(I3
tt(I3
(I4
tt(I4
(I5
I6
tt(I5
(I6
tttp2401
I1
ssg18
I1
sbs(S'slachtoffers'
p2402
S'those'
p2403
tp2404
g5
(g2
g6
NtRp2405
(dp2406
g9
g1
(g10
tRp2407
((I0
(I0
tttp2408
I1
ssg15
g1
(g10
tRp2409
((I0
(I0
tttp2410
I1
ssg18
I1
sbs(S', te zijn'
S'1999 ,'
tp2411
g5
(g2
g6
NtRp2412
(dp2413
g9
g1
(g10
tRp2414
((g12
(I1
I2
tt(I0
g13
t(I1
(I0
tttp2415
I1
ssg15
g1
(g10
tRp2416
((g12
(I0
tt(I0
(I1
tt(I1
g13
t(I2
g13
ttp2417
I1
ssg18
I1
sbs(S'u allen een'
p2418
S'you a'
p2419
tp2420
g5
(g2
g6
NtRp2421
(dp2422
g9
g1
(g10
tRp2423
((I0
(I0
I1
tt(I1
(I2
tttp2424
I1
ssg15
g1
(g10
tRp2425
((I0
(I0
tt(I1
(I0
tt(I2
(I1
tttp2426
I1
ssg18
I1
sbs(S'natuurrampen getroffen'
S'series of natural disasters that'
tp2427
g5
(g2
g6
NtRp2428
(dp2429
g9
g1
(g10
tRp2430
((g12
(I1
tt(I0
g13
t(I1
g13
t(I2
(I0
tt(I3
(I0
tt(I4
g13
ttp2431
I1
ssg15
g1
(g10
tRp2432
((g12
(I0
I1
I4
tt(I0
(I2
I3
tt(I1
g13
ttp2433
I1
ssg18
I1
sbs(g1549
S'as a'
p2434
tp2435
g5
(g2
g6
NtRp2436
(dp2437
g9
g1
(g10
tRp2438
((I0
g13
t(I1
(I0
tttp2439
I1
ssg15
g1
(g10
tRp2440
((g12
(I0
tt(I0
(I1
tttp2441
I1
ssg18
I1
sbs(S'hervatting van de zitting'
p2442
S'resumption of the session'
p2443
tp2444
g5
(g2
g6
NtRp2445
(dp2446
g9
g1
(g10
tRp2447
((I0
(I0
tt(I1
(I1
tt(I2
(I2
tt(I3
(I3
tttp2448
I1
ssg15
g1
(g10
tRp2449
((I0
(I0
tt(I1
(I1
tt(I2
(I2
tt(I3
(I3
tttp2450
I1
ssg18
I1
sbs(S'.'
S'to materialise ,'
p2451
tp2452
g5
(g2
g6
NtRp2453
(dp2454
g9
g1
(g10
tRp2455
((I0
g13
t(I1
g13
t(I2
(I0
tttp2456
I1
ssg15
g1
(g10
tRp2457
((g12
(I0
I1
tt(I0
(I2
tttp2458
I1
ssg18
I1
sbs(S'goede vakantie heeft gehad .'
p2459
S'pleasant festive period .'
p2460
tp2461
g5
(g2
g6
NtRp2462
(dp2463
g9
g1
(g10
tRp2464
((I0
(I0
tt(I1
(I1
I2
I3
tt(I2
g13
t(I3
(I4
tttp2465
I1
ssg15
g1
(g10
tRp2466
((g12
(I2
tt(I0
(I0
tt(I1
(I1
tt(I2
(I1
tt(I3
(I1
tt(I4
(I3
tttp2467
I1
ssg18
I1
sbs(S'deze minuut'
S'for this minute'
p2468
tp2469
g5
(g2
g6
NtRp2470
(dp2471
g9
g1
(g10
tRp2472
((I0
g13
t(I1
(I0
tt(I2
(I1
tttp2473
I1
ssg15
g1
(g10
tRp2474
((g12
(I0
tt(I0
(I1
tt(I1
(I2
tttp2475
I1
ssg18
I1
sbs(S'ik wil u vragen'
S'please rise'
p2476
tp2477
g5
(g2
g6
NtRp2478
(dp2479
g9
g1
(g10
tRp2480
((I0
(I0
I1
I2
I3
tt(I1
g13
ttp2481
I1
ssg15
g1
(g10
tRp2482
((g12
(I1
tt(I0
(I0
tt(I1
(I0
tt(I2
(I0
tt(I3
(I0
tttp2483
I1
ssg18
I1
sbs(S'de voorzitter'
p2484
S'president'
p2485
tp2486
g5
(g2
g6
NtRp2487
(dp2488
g9
g1
(g10
tRp2489
((I0
(I0
I1
tttp2490
I1
ssg15
g1
(g10
tRp2491
((I0
(I0
tt(I1
(I0
tttp2492
I1
ssg18
I1
sbs(S'van de slachtoffers'
p2493
S'of all the victims'
p2494
tp2495
g5
(g2
g6
NtRp2496
(dp2497
g9
g1
(g10
tRp2498
((I0
(I0
tt(I1
(I6
tt(I2
(I1
tt(I3
(I2
tttp2499
I1
ssg15
g1
(g10
tRp2500
((g12
(I1
tt(I0
(I0
tt(I1
(I2
tt(I2
(I3
tttp2501
I1
ssg18
I1
sbs(S'onderbroken , te'
p2502
S','
tp2503
g5
(g2
g6
NtRp2504
(dp2505
g9
g1
(g10
tRp2506
((g12
(I0
I2
tt(I0
(I1
tttp2507
I1
ssg15
g1
(g10
tRp2508
((I0
g13
t(I1
(I0
tt(I2
g13
ttp2509
I1
ssg18
I1
sbs(S'werd onderbroken , te zijn hervat'
p2510
S','
tp2511
g5
(g2
g6
NtRp2512
(dp2513
g9
g1
(g10
tRp2514
((g12
(I0
I1
I3
I4
I5
tt(I0
(I2
tttp2515
I1
ssg15
g1
(g10
tRp2516
((I0
g13
t(I1
g13
t(I2
(I0
tt(I3
g13
t(I4
g13
t(I5
g13
ttp2517
I1
ssg18
I1
sbs(S'het europees parlement , die op'
p2518
S'the european parliament adjourned on'
p2519
tp2520
g5
(g2
g6
NtRp2521
(dp2522
g9
g1
(g10
tRp2523
((I0
(I0
tt(I1
(I1
tt(I2
(I2
tt(I3
(I3
I4
tt(I4
(I5
tttp2524
I1
ssg15
g1
(g10
tRp2525
((I0
(I0
tt(I1
(I1
tt(I2
(I2
tt(I3
(I3
tt(I4
(I3
tt(I5
(I4
tttp2526
I1
ssg18
I1
sbs(S'op vrijdag 17 december werd'
p2527
S'on friday 17 december'
tp2528
g5
(g2
g6
NtRp2529
(dp2530
g9
g1
(g10
tRp2531
((g12
(I4
tt(I0
(I0
tt(I1
(I1
tt(I2
(I2
tt(I3
(I3
tttp2532
I1
ssg15
g1
(g10
tRp2533
((I0
(I0
tt(I1
(I1
tt(I2
(I2
tt(I3
(I3
tt(I4
g13
ttp2534
I1
ssg18
I1
sbs(S'verschrikkelijke natuurrampen'
S'of natural disasters that truly were dreadful'
p2535
tp2536
g5
(g2
g6
NtRp2537
(dp2538
g9
g1
(g10
tRp2539
((I0
g13
t(I1
(I1
tt(I2
(I1
tt(I3
g13
t(I4
(I-2
tt(I5
(I-3
tt(I6
(I0
tttp2540
I1
ssg15
g1
(g10
tRp2541
((g12
(I0
I3
I4
I5
tt(I0
(I6
tt(I1
(I1
I2
tttp2542
I1
ssg18
I1
sbs(S'vrijdag 17'
p2543
S'friday 17'
p2544
tp2545
g5
(g2
g6
NtRp2546
(dp2547
g9
g1
(g10
tRp2548
((I0
(I0
tt(I1
(I1
tttp2549
I1
ssg15
g1
(g10
tRp2550
((I0
(I0
tt(I1
(I1
tttp2551
I1
ssg18
I1
sbs(S'goede vakantie heeft gehad'
p2552
S'pleasant festive'
p2553
tp2554
g5
(g2
g6
NtRp2555
(dp2556
g9
g1
(g10
tRp2557
((I0
(I0
tt(I1
(I1
I2
I3
tttp2558
I1
ssg15
g1
(g10
tRp2559
((I0
(I0
tt(I1
(I1
tt(I2
(I1
tt(I3
(I1
tttp2560
I1
ssg18
I1
sbs(S'werd onderbroken , te zijn'
S'1999 ,'
tp2561
g5
(g2
g6
NtRp2562
(dp2563
g9
g1
(g10
tRp2564
((g12
(I0
I1
I3
I4
tt(I0
g13
t(I1
(I2
tttp2565
I1
ssg15
g1
(g10
tRp2566
((g12
(I0
tt(I0
g13
t(I1
g13
t(I2
(I1
tt(I3
g13
t(I4
g13
ttp2567
I1
ssg18
I1
sbs(S'onze lidstaten'
S'countries suffered a series of'
p2568
tp2569
g5
(g2
g6
NtRp2570
(dp2571
g9
g1
(g10
tRp2572
((I0
(I1
tt(I1
(I4
tt(I2
(I0
tt(I3
g13
t(I4
g13
ttp2573
I1
ssg15
g1
(g10
tRp2574
((g12
(I1
I3
I4
tt(I0
(I2
tt(I1
(I0
tttp2575
I1
ssg18
I1
sbs(S'slachtoffers . ik doel'
p2576
S'victims concerned ,'
tp2577
g5
(g2
g6
NtRp2578
(dp2579
g9
g1
(g10
tRp2580
((g12
(I2
I3
tt(I0
(I0
tt(I1
g13
t(I2
(I1
tttp2581
I1
ssg15
g1
(g10
tRp2582
((g12
(I1
tt(I0
(I0
tt(I1
(I2
tt(I2
g13
t(I3
g13
ttp2583
I1
ssg18
I1
sbs(S'een aantal van onze'
p2584
S'a number of countries suffered a'
p2585
tp2586
g5
(g2
g6
NtRp2587
(dp2588
g9
g1
(g10
tRp2589
((I0
(I0
tt(I1
(I1
tt(I2
(I1
I2
tt(I3
(I4
tt(I4
(I7
tt(I5
(I3
tttp2590
I1
ssg15
g1
(g10
tRp2591
((g12
(I3
I4
tt(I0
(I0
tt(I1
(I1
I2
tt(I2
(I2
tt(I3
(I5
tttp2592
I1
ssg18
I1
sbs(S'aangegeven'
p2593
S'requested'
p2594
tp2595
g5
(g2
g6
NtRp2596
(dp2597
g9
g1
(g10
tRp2598
((I0
(I0
tttp2599
I1
ssg15
g1
(g10
tRp2600
((I0
(I0
tttp2601
I1
ssg18
I1
sbs(S'verschillende lidstaten van de unie'
p2602
S'various countries of the european union'
p2603
tp2604
g5
(g2
g6
NtRp2605
(dp2606
g9
g1
(g10
tRp2607
((I0
(I0
tt(I1
(I1
tt(I2
(I2
tt(I3
(I3
tt(I4
(I4
tt(I5
(I4
tttp2608
I1
ssg15
g1
(g10
tRp2609
((I0
(I0
tt(I1
(I1
tt(I2
(I2
tt(I3
(I3
tt(I4
(I4
I5
tttp2610
I1
ssg18
I1
sbs(S'natuurrampen getroffen .'
p2611
S'natural disasters that truly were dreadful .'
tp2612
g5
(g2
g6
NtRp2613
(dp2614
g9
g1
(g10
tRp2615
((g12
(I1
tt(I0
(I0
tt(I1
(I0
tt(I2
g13
t(I3
(I-3
tt(I4
(I-4
tt(I5
(I-1
tt(I6
(I2
tttp2616
I1
ssg15
g1
(g10
tRp2617
((g12
(I2
I3
I4
I5
tt(I0
(I0
I1
tt(I1
g13
t(I2
(I6
tttp2618
I1
ssg18
I1
sbs(g241
S'a'
tp2619
g5
(g2
g6
NtRp2620
(dp2621
g9
g1
(g10
tRp2622
((I0
(I0
tttp2623
I1
ssg15
g1
(g10
tRp2624
((I0
(I0
tttp2625
I1
ssg18
I1
sbs(S'verschrikkelijke natuurrampen getroffen .'
S'of natural disasters that truly were dreadful .'
p2626
tp2627
g5
(g2
g6
NtRp2628
(dp2629
g9
g1
(g10
tRp2630
((g12
(I2
tt(I0
g13
t(I1
(I1
tt(I2
(I1
tt(I3
g13
t(I4
(I-2
tt(I5
(I-3
tt(I6
(I0
tt(I7
(I3
tttp2631
I1
ssg15
g1
(g10
tRp2632
((g12
(I0
I3
I4
I5
tt(I0
(I6
tt(I1
(I1
I2
tt(I2
g13
t(I3
(I7
tttp2633
I1
ssg18
I1
sbs(S'gelukkig nieuwjaar en'
S'happy new year in the'
p2634
tp2635
g5
(g2
g6
NtRp2636
(dp2637
g9
g1
(g10
tRp2638
((I0
(I0
I1
tt(I1
(I1
tt(I2
(I1
tt(I3
(I2
tt(I4
g13
ttp2639
I1
ssg15
g1
(g10
tRp2640
((g12
(I4
tt(I0
(I0
tt(I1
(I0
I1
I2
tt(I2
(I3
tttp2641
I1
ssg18
I1
sbs(S'zoals u heeft kunnen constateren'
S'although , as you will have seen'
p2642
tp2643
g5
(g2
g6
NtRp2644
(dp2645
g9
g1
(g10
tRp2646
((I0
g13
t(I1
g13
t(I2
(I0
tt(I3
(I1
tt(I4
(I3
tt(I5
(I2
I4
tt(I6
(I3
I4
tttp2647
I1
ssg15
g1
(g10
tRp2648
((g12
(I0
I1
tt(I0
(I2
tt(I1
(I3
tt(I2
(I5
tt(I3
(I4
I6
tt(I4
(I5
I6
tttp2649
I1
ssg18
I1
sbs(g224
S'victims'
p2650
tp2651
g5
(g2
g6
NtRp2652
(dp2653
g9
g1
(g10
tRp2654
((I0
(I0
tttp2655
I1
ssg15
g1
(g10
tRp2656
((I0
(I0
tttp2657
I1
ssg18
I1
sbs(S'kunnen constateren , is'
p2658
S'will have seen ,'
tp2659
g5
(g2
g6
NtRp2660
(dp2661
g9
g1
(g10
tRp2662
((I0
(I0
tt(I1
(I-1
I1
tt(I2
(I0
I1
tt(I3
(I2
I3
tttp2663
I1
ssg15
g1
(g10
tRp2664
((I0
(I0
I2
tt(I1
(I1
I2
tt(I2
(I3
tt(I3
(I3
tttp2665
I1
ssg18
I1
sbs(S'millenniumbug " uitgebleven'
S"millennium bug ' failed to materialise"
p2666
tp2667
g5
(g2
g6
NtRp2668
(dp2669
g9
g1
(g10
tRp2670
((I0
(I0
tt(I1
(I0
I2
tt(I2
(I1
tt(I3
(I2
tt(I4
g13
t(I5
g13
ttp2671
I1
ssg15
g1
(g10
tRp2672
((g12
(I4
I5
tt(I0
(I0
I1
tt(I1
(I2
tt(I2
(I1
I3
tttp2673
I1
ssg18
I1
sbs(S'slachtoffers .'
p2674
S'victims concerned ,'
p2675
tp2676
g5
(g2
g6
NtRp2677
(dp2678
g9
g1
(g10
tRp2679
((I0
(I0
tt(I1
g13
t(I2
(I1
tttp2680
I1
ssg15
g1
(g10
tRp2681
((g12
(I1
tt(I0
(I0
tt(I1
(I2
tttp2682
I1
ssg18
I1
sbs(S'met name'
p2683
S'particularly'
p2684
tp2685
g5
(g2
g6
NtRp2686
(dp2687
g9
g1
(g10
tRp2688
((I0
(I0
I1
tttp2689
I1
ssg15
g1
(g10
tRp2690
((I0
(I0
tt(I1
(I0
tttp2691
I1
ssg18
I1
sbs(S'het'
p2692
S'the'
p2693
tp2694
g5
(g2
g6
NtRp2695
(dp2696
g9
g1
(g10
tRp2697
((I0
(I0
tttp2698
I3
ssg15
g1
(g10
tRp2699
((I0
(I0
tttp2700
I3
ssg18
I3
sbs(S'lidstaten van'
p2701
S'countries of'
p2702
tp2703
g5
(g2
g6
NtRp2704
(dp2705
g9
g1
(g10
tRp2706
((I0
(I0
tt(I1
(I1
tttp2707
I1
ssg15
g1
(g10
tRp2708
((I0
(I0
tt(I1
(I1
tttp2709
I1
ssg18
I1
sbs(S', te zijn hervat'
p2710
S','
tp2711
g5
(g2
g6
NtRp2712
(dp2713
g9
g1
(g10
tRp2714
((g12
(I1
I2
I3
tt(I0
(I0
tttp2715
I1
ssg15
g1
(g10
tRp2716
((I0
(I0
tt(I1
g13
t(I2
g13
t(I3
g13
ttp2717
I1
ssg18
I1
sbs(S'wil ik'
p2718
S'i should like to'
p2719
tp2720
g5
(g2
g6
NtRp2721
(dp2722
g9
g1
(g10
tRp2723
((I0
(I1
tt(I1
(I0
tt(I2
(I0
tt(I3
(I0
tttp2724
I1
ssg15
g1
(g10
tRp2725
((I0
(I1
I2
I3
tt(I1
(I0
tttp2726
I1
ssg18
I1
sbs(S'vrijdag 17 december'
p2727
S'friday 17 december'
p2728
tp2729
g5
(g2
g6
NtRp2730
(dp2731
g9
g1
(g10
tRp2732
((I0
(I0
tt(I1
(I1
tt(I2
(I2
tttp2733
I1
ssg15
g1
(g10
tRp2734
((I0
(I0
tt(I1
(I1
tt(I2
(I2
tttp2735
I1
ssg18
I1
sbs(S'op vrijdag 17 december werd'
S'on friday 17 december 1999'
tp2736
g5
(g2
g6
NtRp2737
(dp2738
g9
g1
(g10
tRp2739
((g12
(I4
tt(I0
(I0
tt(I1
(I1
tt(I2
(I2
tt(I3
(I3
tt(I4
g13
ttp2740
I1
ssg15
g1
(g10
tRp2741
((g12
(I4
tt(I0
(I0
tt(I1
(I1
tt(I2
(I2
tt(I3
(I3
tt(I4
g13
ttp2742
I1
ssg18
I1
sbs(S'europees parlement , die'
p2743
S'european parliament adjourned'
p2744
tp2745
g5
(g2
g6
NtRp2746
(dp2747
g9
g1
(g10
tRp2748
((I0
(I0
tt(I1
(I1
tt(I2
(I2
I3
tttp2749
I1
ssg15
g1
(g10
tRp2750
((I0
(I0
tt(I1
(I1
tt(I2
(I2
tt(I3
(I2
tttp2751
I1
ssg18
I1
sbs(g508
S'natural disasters that'
p2752
tp2753
g5
(g2
g6
NtRp2754
(dp2755
g9
g1
(g10
tRp2756
((I0
(I0
tt(I1
(I0
tt(I2
g13
ttp2757
I1
ssg15
g1
(g10
tRp2758
((g12
(I2
tt(I0
(I0
I1
tttp2759
I1
ssg18
I1
sbs(S', die op'
p2760
S'adjourned on'
p2761
tp2762
g5
(g2
g6
NtRp2763
(dp2764
g9
g1
(g10
tRp2765
((I0
(I0
I1
tt(I1
(I2
tttp2766
I1
ssg15
g1
(g10
tRp2767
((I0
(I0
tt(I1
(I0
tt(I2
(I1
tttp2768
I1
ssg18
I1
sbs(S'deze vergaderperiode'
p2769
S'during this part - session'
p2770
tp2771
g5
(g2
g6
NtRp2772
(dp2773
g9
g1
(g10
tRp2774
((I0
(I1
tt(I1
(I0
tt(I2
(I1
tt(I3
(I1
tt(I4
(I1
tttp2775
I1
ssg15
g1
(g10
tRp2776
((I0
(I1
tt(I1
(I0
I2
I3
I4
tttp2777
I1
ssg18
I1
sbs(S'een'
S'enjoyed a'
p2778
tp2779
g5
(g2
g6
NtRp2780
(dp2781
g9
g1
(g10
tRp2782
((I0
g13
t(I1
(I0
tttp2783
I1
ssg15
g1
(g10
tRp2784
((g12
(I0
tt(I0
(I1
tttp2785
I1
ssg18
I1
sbs(S'noodweer dat'
S'the terrible storms ,'
p2786
tp2787
g5
(g2
g6
NtRp2788
(dp2789
g9
g1
(g10
tRp2790
((I0
(I1
tt(I1
(I0
tt(I2
(I0
tt(I3
g13
ttp2791
I1
ssg15
g1
(g10
tRp2792
((g12
(I3
tt(I0
(I1
I2
tt(I1
(I0
tttp2793
I1
ssg18
I1
sbs(S'zijn hervat .'
p2794
g919
tp2795
g5
(g2
g6
NtRp2796
(dp2797
g9
g1
(g10
tRp2798
((g12
(I0
I1
tt(I0
(I2
tttp2799
I1
ssg15
g1
(g10
tRp2800
((I0
g13
t(I1
g13
t(I2
(I0
tttp2801
I1
ssg18
I1
sbs(S'verschillende lidstaten van'
p2802
S'various countries of'
p2803
tp2804
g5
(g2
g6
NtRp2805
(dp2806
g9
g1
(g10
tRp2807
((I0
(I0
tt(I1
(I1
tt(I2
(I2
tttp2808
I1
ssg15
g1
(g10
tRp2809
((I0
(I0
tt(I1
(I1
tt(I2
(I2
tttp2810
I1
ssg18
I1
sbs(S'hiermee met name'
p2811
S'all the victims concerned , particularly'
tp2812
g5
(g2
g6
NtRp2813
(dp2814
g9
g1
(g10
tRp2815
((I0
(I0
tt(I1
(I-5
tt(I2
(I-4
tt(I3
g13
t(I4
(I-3
tt(I5
(I1
I2
tttp2816
I1
ssg15
g1
(g10
tRp2817
((g12
(I1
I2
I3
I4
tt(I0
(I0
tt(I1
(I5
tt(I2
(I5
tttp2818
I1
ssg18
I1
sbs(S'burgers van'
p2819
S'people in'
p2820
tp2821
g5
(g2
g6
NtRp2822
(dp2823
g9
g1
(g10
tRp2824
((I0
(I0
tt(I1
(I1
tttp2825
I1
ssg15
g1
(g10
tRp2826
((I0
(I0
tt(I1
(I1
tttp2827
I1
ssg18
I1
sbs(S'verschillende lidstaten van de'
p2828
S'various countries of the'
p2829
tp2830
g5
(g2
g6
NtRp2831
(dp2832
g9
g1
(g10
tRp2833
((I0
(I0
tt(I1
(I1
tt(I2
(I2
tt(I3
(I3
tttp2834
I1
ssg15
g1
(g10
tRp2835
((I0
(I0
tt(I1
(I1
tt(I2
(I2
tt(I3
(I3
tttp2836
I1
ssg18
I1
sbs(g1670
S', for this'
p2837
tp2838
g5
(g2
g6
NtRp2839
(dp2840
g9
g1
(g10
tRp2841
((I0
g13
t(I1
g13
t(I2
(I0
tttp2842
I1
ssg15
g1
(g10
tRp2843
((g12
(I0
I1
tt(I0
(I2
tttp2844
I1
ssg18
I1
sbs(S'van de unie'
p2845
S'of the european union'
p2846
tp2847
g5
(g2
g6
NtRp2848
(dp2849
g9
g1
(g10
tRp2850
((I0
(I0
tt(I1
(I1
tt(I2
(I2
tt(I3
(I2
tttp2851
I1
ssg15
g1
(g10
tRp2852
((I0
(I0
tt(I1
(I1
tt(I2
(I2
I3
tttp2853
I1
ssg18
I1
sbs(S'deze'
p2854
S'this subject in the course of the'
p2855
tp2856
g5
(g2
g6
NtRp2857
(dp2858
g9
g1
(g10
tRp2859
((I0
(I0
tt(I1
(I1
tt(I2
(I-8
tt(I3
g13
t(I4
g13
t(I5
g13
t(I6
(I0
tttp2860
I1
ssg15
g1
(g10
tRp2861
((g12
(I1
I2
I3
I4
I5
tt(I0
(I0
I6
tttp2862
I1
ssg18
I1
sbs(S'werd onderbroken , te zijn hervat . ik'
p2863
S', and i'
tp2864
g5
(g2
g6
NtRp2865
(dp2866
g9
g1
(g10
tRp2867
((g12
(I0
I1
I3
I4
I5
tt(I0
(I2
tt(I1
(I6
tt(I2
(I7
tttp2868
I1
ssg15
g1
(g10
tRp2869
((I0
g13
t(I1
g13
t(I2
(I0
tt(I3
g13
t(I4
g13
t(I5
g13
t(I6
(I1
tt(I7
(I2
tttp2870
I1
ssg18
I1
sbs(S'slachtoffers . ik doel hiermee met name'
p2871
S'all the victims concerned , particularly'
p2872
tp2873
g5
(g2
g6
NtRp2874
(dp2875
g9
g1
(g10
tRp2876
((g12
(I2
I3
tt(I0
(I4
tt(I1
(I-1
tt(I2
(I0
tt(I3
g13
t(I4
(I1
tt(I5
(I5
I6
tttp2877
I1
ssg15
g1
(g10
tRp2878
((g12
(I1
I3
tt(I0
(I2
tt(I1
(I4
tt(I2
g13
t(I3
g13
t(I4
(I0
tt(I5
(I5
tt(I6
(I5
tttp2879
I1
ssg18
I1
sbs(S'de burgers van een aantal van'
p2880
S'the people in a number of'
p2881
tp2882
g5
(g2
g6
NtRp2883
(dp2884
g9
g1
(g10
tRp2885
((I0
(I0
tt(I1
(I1
tt(I2
(I2
tt(I3
(I3
tt(I4
(I4
tt(I5
(I4
I5
tttp2886
I1
ssg15
g1
(g10
tRp2887
((I0
(I0
tt(I1
(I1
tt(I2
(I2
tt(I3
(I3
tt(I4
(I4
I5
tt(I5
(I5
tttp2888
I1
ssg18
I1
sbs(S'de unie heeft'
p2889
S'the european union'
tp2890
g5
(g2
g6
NtRp2891
(dp2892
g9
g1
(g10
tRp2893
((g12
(I2
tt(I0
(I0
tt(I1
(I1
tt(I2
(I1
tttp2894
I1
ssg15
g1
(g10
tRp2895
((I0
(I0
tt(I1
(I1
I2
tt(I2
g13
ttp2896
I1
ssg18
I1
sbs(S'zijn daarentegen'
p2897
S'truly were'
p2898
tp2899
g5
(g2
g6
NtRp2900
(dp2901
g9
g1
(g10
tRp2902
((I0
(I1
tt(I1
(I0
tttp2903
I1
ssg15
g1
(g10
tRp2904
((I0
(I1
tt(I1
(I0
tttp2905
I1
ssg18
I1
sbs(S'. de burgers'
p2906
S', still the people'
p2907
tp2908
g5
(g2
g6
NtRp2909
(dp2910
g9
g1
(g10
tRp2911
((I0
(I0
tt(I1
g13
t(I2
(I1
tt(I3
(I2
tttp2912
I1
ssg15
g1
(g10
tRp2913
((g12
(I1
tt(I0
(I0
tt(I1
(I2
tt(I2
(I3
tttp2914
I1
ssg18
I1
sbs(S'u deze vergaderperiode'
p2915
S'during this part - session'
tp2916
g5
(g2
g6
NtRp2917
(dp2918
g9
g1
(g10
tRp2919
((g12
(I0
tt(I0
(I2
tt(I1
(I1
tt(I2
(I2
tt(I3
(I2
tt(I4
(I2
tttp2920
I1
ssg15
g1
(g10
tRp2921
((I0
g13
t(I1
(I1
tt(I2
(I0
I2
I3
I4
tttp2922
I1
ssg18
I1
sbs(S'verklaar de zitting van'
p2923
S'declare resumed the session of'
p2924
tp2925
g5
(g2
g6
NtRp2926
(dp2927
g9
g1
(g10
tRp2928
((I0
(I0
tt(I1
(I0
tt(I2
(I1
tt(I3
(I2
tt(I4
(I3
tttp2929
I1
ssg15
g1
(g10
tRp2930
((I0
(I0
I1
tt(I1
(I2
tt(I2
(I3
tt(I3
(I4
tttp2931
I1
ssg18
I1
sbs(S'het parlement neemt staande'
p2932
S'the house rose and observed'
p2933
tp2934
g5
(g2
g6
NtRp2935
(dp2936
g9
g1
(g10
tRp2937
((I0
(I0
tt(I1
(I1
tt(I2
(I2
I3
tt(I3
g13
t(I4
(I3
tttp2938
I1
ssg15
g1
(g10
tRp2939
((g12
(I3
tt(I0
(I0
tt(I1
(I1
tt(I2
(I2
tt(I3
(I2
I4
tttp2940
I1
ssg18
I1
sbs(S'aangegeven dat u'
p2941
S'requested a debate on this subject in'
tp2942
g5
(g2
g6
NtRp2943
(dp2944
g9
g1
(g10
tRp2945
((g12
(I2
tt(I0
(I0
tt(I1
(I5
tt(I2
(I6
tt(I3
(I8
tt(I4
(I9
tt(I5
(I10
tt(I6
(I1
tttp2946
I1
ssg15
g1
(g10
tRp2947
((g12
(I1
I2
I3
I4
I5
tt(I0
(I0
tt(I1
(I6
tt(I2
g13
ttp2948
I1
ssg18
I1
sbs(S'van het'
p2949
S'of the'
tp2950
g5
(g2
g6
NtRp2951
(dp2952
g9
g1
(g10
tRp2953
((I0
(I0
tt(I1
(I1
tttp2954
I1
ssg15
g1
(g10
tRp2955
((I0
(I0
tt(I1
(I1
tttp2956
I1
ssg18
I1
sbs(g1015
S'the meantime ,'
p2957
tp2958
g5
(g2
g6
NtRp2959
(dp2960
g9
g1
(g10
tRp2961
((I0
(I0
tt(I1
g13
t(I2
g13
ttp2962
I1
ssg15
g1
(g10
tRp2963
((g12
(I1
I2
tt(I0
(I0
tttp2964
I1
ssg18
I1
sbs(S'wil'
p2965
S'should like to'
p2966
tp2967
g5
(g2
g6
NtRp2968
(dp2969
g9
g1
(g10
tRp2970
((I0
(I0
tt(I1
(I0
tt(I2
(I0
tttp2971
I1
ssg15
g1
(g10
tRp2972
((I0
(I0
I1
I2
tttp2973
I1
ssg18
I1
sbs(S'ik graag'
p2974
S'i'
tp2975
g5
(g2
g6
NtRp2976
(dp2977
g9
g1
(g10
tRp2978
((g12
(I1
tt(I0
(I0
tttp2979
I1
ssg15
g1
(g10
tRp2980
((I0
(I0
tt(I1
g13
ttp2981
I1
ssg18
I1
sbs(S'van het europees parlement , die op'
p2982
S'of the european parliament adjourned on'
p2983
tp2984
g5
(g2
g6
NtRp2985
(dp2986
g9
g1
(g10
tRp2987
((I0
(I0
tt(I1
(I1
tt(I2
(I2
tt(I3
(I3
tt(I4
(I4
I5
tt(I5
(I6
tttp2988
I1
ssg15
g1
(g10
tRp2989
((I0
(I0
tt(I1
(I1
tt(I2
(I2
tt(I3
(I3
tt(I4
(I4
tt(I5
(I4
tt(I6
(I5
tttp2990
I1
ssg18
I1
sbs(g894
S'in the course'
p2991
tp2992
g5
(g2
g6
NtRp2993
(dp2994
g9
g1
(g10
tRp2995
((I0
(I0
tt(I1
g13
t(I2
g13
ttp2996
I1
ssg15
g1
(g10
tRp2997
((g12
(I1
I2
tt(I0
(I0
tttp2998
I1
ssg18
I1
sbs(S'van een'
S', as a'
tp2999
g5
(g2
g6
NtRp3000
(dp3001
g9
g1
(g10
tRp3002
((g12
(I0
tt(I0
g13
t(I1
g13
t(I2
(I1
tttp3003
I1
ssg15
g1
(g10
tRp3004
((g12
(I0
I1
tt(I0
g13
t(I1
(I2
tttp3005
I1
ssg18
I1
sbs(S'een aantal van onze'
S'a number of countries suffered a series'
p3006
tp3007
g5
(g2
g6
NtRp3008
(dp3009
g9
g1
(g10
tRp3010
((I0
(I0
tt(I1
(I1
tt(I2
(I1
I2
tt(I3
(I4
tt(I4
(I7
tt(I5
(I3
tt(I6
g13
ttp3011
I1
ssg15
g1
(g10
tRp3012
((g12
(I3
I4
I6
tt(I0
(I0
tt(I1
(I1
I2
tt(I2
(I2
tt(I3
(I5
tttp3013
I1
ssg18
I1
sbs(S', die op vrijdag 17 december werd'
S'adjourned on friday 17 december 1999'
tp3014
g5
(g2
g6
NtRp3015
(dp3016
g9
g1
(g10
tRp3017
((g12
(I6
tt(I0
(I0
I1
tt(I1
(I2
tt(I2
(I3
tt(I3
(I4
tt(I4
(I5
tt(I5
g13
ttp3018
I1
ssg15
g1
(g10
tRp3019
((g12
(I5
tt(I0
(I0
tt(I1
(I0
tt(I2
(I1
tt(I3
(I2
tt(I4
(I3
tt(I5
(I4
tt(I6
g13
ttp3020
I1
ssg18
I1
sbs(S'de grote'
p3021
S'the dreaded'
p3022
tp3023
g5
(g2
g6
NtRp3024
(dp3025
g9
g1
(g10
tRp3026
((I0
(I0
tt(I1
(I1
tttp3027
I1
ssg15
g1
(g10
tRp3028
((I0
(I0
tt(I1
(I1
tttp3029
I1
ssg18
I1
sbs(S'( het parlement neemt staande een'
p3030
S'( the house rose and observed a'
p3031
tp3032
g5
(g2
g6
NtRp3033
(dp3034
g9
g1
(g10
tRp3035
((I0
(I0
tt(I1
(I1
tt(I2
(I2
tt(I3
(I3
I4
tt(I4
g13
t(I5
(I4
tt(I6
(I5
tttp3036
I1
ssg15
g1
(g10
tRp3037
((g12
(I4
tt(I0
(I0
tt(I1
(I1
tt(I2
(I2
tt(I3
(I3
tt(I4
(I3
I5
tt(I5
(I6
tttp3038
I1
ssg18
I1
sbs(S"van een aantal collega ' s"
S'as a number of members have'
tp3039
g5
(g2
g6
NtRp3040
(dp3041
g9
g1
(g10
tRp3042
((g12
(I0
tt(I0
g13
t(I1
(I1
tt(I2
(I2
tt(I3
(I2
tt(I4
(I3
I4
I5
tt(I5
(I5
tttp3043
I1
ssg15
g1
(g10
tRp3044
((g12
(I0
tt(I0
g13
t(I1
(I1
tt(I2
(I2
I3
tt(I3
(I4
tt(I4
(I4
tt(I5
(I4
I5
tttp3045
I1
ssg18
I1
sbs(S'van een aantal van onze'
p3046
S'in a number of countries suffered a'
p3047
tp3048
g5
(g2
g6
NtRp3049
(dp3050
g9
g1
(g10
tRp3051
((I0
(I0
tt(I1
(I1
tt(I2
(I2
tt(I3
(I2
I3
tt(I4
(I5
tt(I5
(I8
tt(I6
(I4
tttp3052
I1
ssg15
g1
(g10
tRp3053
((g12
(I4
I5
tt(I0
(I0
tt(I1
(I1
tt(I2
(I2
I3
tt(I3
(I3
tt(I4
(I6
tttp3054
I1
ssg18
I1
sbs(S'van'
p3055
S'of'
p3056
tp3057
g5
(g2
g6
NtRp3058
(dp3059
g9
g1
(g10
tRp3060
((I0
(I0
tttp3061
I6
ssg15
g1
(g10
tRp3062
((I0
(I0
tttp3063
I6
ssg18
I6
sbs(S'stilte in acht )'
p3064
S"'s silence )"
p3065
tp3066
g5
(g2
g6
NtRp3067
(dp3068
g9
g1
(g10
tRp3069
((I0
(I0
tt(I1
(I0
I1
I2
tt(I2
(I3
tttp3070
I1
ssg15
g1
(g10
tRp3071
((I0
(I0
I1
tt(I1
(I1
tt(I2
(I1
tt(I3
(I2
tttp3072
I1
ssg18
I1
sbs(S'werd onderbroken , te'
S'1999 ,'
tp3073
g5
(g2
g6
NtRp3074
(dp3075
g9
g1
(g10
tRp3076
((g12
(I0
I1
I3
tt(I0
g13
t(I1
(I2
tttp3077
I1
ssg15
g1
(g10
tRp3078
((g12
(I0
tt(I0
g13
t(I1
g13
t(I2
(I1
tt(I3
g13
ttp3079
I1
ssg18
I1
sbs(S'van de slachtoffers . ik'
p3080
S'of all the victims concerned ,'
tp3081
g5
(g2
g6
NtRp3082
(dp3083
g9
g1
(g10
tRp3084
((g12
(I4
tt(I0
(I0
tt(I1
(I6
tt(I2
(I1
tt(I3
(I2
tt(I4
g13
t(I5
(I3
tttp3085
I1
ssg15
g1
(g10
tRp3086
((g12
(I1
I4
tt(I0
(I0
tt(I1
(I2
tt(I2
(I3
tt(I3
(I5
tt(I4
g13
ttp3087
I1
ssg18
I1
sbs(S'u allen'
p3088
S'you'
p3089
tp3090
g5
(g2
g6
NtRp3091
(dp3092
g9
g1
(g10
tRp3093
((I0
(I0
I1
tttp3094
I1
ssg15
g1
(g10
tRp3095
((I0
(I0
tt(I1
(I0
tttp3096
I1
ssg18
I1
sbs(S'nu wil'
p3097
S'should like to'
tp3098
g5
(g2
g6
NtRp3099
(dp3100
g9
g1
(g10
tRp3101
((g12
(I0
tt(I0
(I1
tt(I1
(I1
tt(I2
(I1
tttp3102
I1
ssg15
g1
(g10
tRp3103
((I0
g13
t(I1
(I0
I1
I2
tttp3104
I1
ssg18
I1
sbs(S'verschrikkelijke'
p3105
S'dreadful'
p3106
tp3107
g5
(g2
g6
NtRp3108
(dp3109
g9
g1
(g10
tRp3110
((I0
(I0
tttp3111
I1
ssg15
g1
(g10
tRp3112
((I0
(I0
tttp3113
I1
ssg18
I1
sbs(S'deze minuut'
p3114
S'this minute'
p3115
tp3116
g5
(g2
g6
NtRp3117
(dp3118
g9
g1
(g10
tRp3119
((I0
(I0
tt(I1
(I1
tttp3120
I1
ssg15
g1
(g10
tRp3121
((I0
(I0
tt(I1
(I1
tttp3122
I1
ssg18
I1
sbs(S'vakantie heeft gehad'
S'festive period'
p3123
tp3124
g5
(g2
g6
NtRp3125
(dp3126
g9
g1
(g10
tRp3127
((I0
(I0
I1
I2
tt(I1
g13
ttp3128
I1
ssg15
g1
(g10
tRp3129
((g12
(I1
tt(I0
(I0
tt(I1
(I0
tt(I2
(I0
tttp3130
I1
ssg18
I1
sbs(S'en hoop dat'
p3131
S'in the hope that'
p3132
tp3133
g5
(g2
g6
NtRp3134
(dp3135
g9
g1
(g10
tRp3136
((I0
(I0
tt(I1
g13
t(I2
(I1
tt(I3
(I2
tttp3137
I1
ssg15
g1
(g10
tRp3138
((g12
(I1
tt(I0
(I0
tt(I1
(I2
tt(I2
(I3
tttp3139
I1
ssg18
I1
sbs(S'17'
p3140
S'17'
p3141
tp3142
g5
(g2
g6
NtRp3143
(dp3144
g9
g1
(g10
tRp3145
((I0
(I0
tttp3146
I1
ssg15
g1
(g10
tRp3147
((I0
(I0
tttp3148
I1
ssg18
I1
sbs(S'neemt staande'
p3149
S'rose and observed'
p3150
tp3151
g5
(g2
g6
NtRp3152
(dp3153
g9
g1
(g10
tRp3154
((I0
(I0
I1
tt(I1
g13
t(I2
(I1
tttp3155
I1
ssg15
g1
(g10
tRp3156
((g12
(I1
tt(I0
(I0
tt(I1
(I0
I2
tttp3157
I1
ssg18
I1
sbs(S'op vrijdag 17 december werd onderbroken'
S'on friday 17 december 1999'
tp3158
g5
(g2
g6
NtRp3159
(dp3160
g9
g1
(g10
tRp3161
((g12
(I4
I5
tt(I0
(I0
tt(I1
(I1
tt(I2
(I2
tt(I3
(I3
tt(I4
g13
ttp3162
I1
ssg15
g1
(g10
tRp3163
((g12
(I4
tt(I0
(I0
tt(I1
(I1
tt(I2
(I2
tt(I3
(I3
tt(I4
g13
t(I5
g13
ttp3164
I1
ssg18
I1
sbs(S'slachtoffers . ik doel hiermee'
p3165
S'all the victims concerned ,'
tp3166
g5
(g2
g6
NtRp3167
(dp3168
g9
g1
(g10
tRp3169
((g12
(I2
I3
tt(I0
(I4
tt(I1
(I-1
tt(I2
(I0
tt(I3
g13
t(I4
(I1
tttp3170
I1
ssg15
g1
(g10
tRp3171
((g12
(I1
I3
tt(I0
(I2
tt(I1
(I4
tt(I2
g13
t(I3
g13
t(I4
(I0
tttp3172
I1
ssg18
I1
sbs(S'17 december werd onderbroken'
S'17 december 1999'
tp3173
g5
(g2
g6
NtRp3174
(dp3175
g9
g1
(g10
tRp3176
((g12
(I2
I3
tt(I0
(I0
tt(I1
(I1
tt(I2
g13
ttp3177
I1
ssg15
g1
(g10
tRp3178
((g12
(I2
tt(I0
(I0
tt(I1
(I1
tt(I2
g13
t(I3
g13
ttp3179
I1
ssg18
I1
sbs(S'. ik doel hiermee met name'
p3180
S'all the victims concerned , particularly'
tp3181
g5
(g2
g6
NtRp3182
(dp3183
g9
g1
(g10
tRp3184
((g12
(I1
I2
tt(I0
(I3
tt(I1
(I-2
tt(I2
(I-1
tt(I3
g13
t(I4
(I0
tt(I5
(I4
I5
tttp3185
I1
ssg15
g1
(g10
tRp3186
((g12
(I1
I2
I3
tt(I0
(I4
tt(I1
g13
t(I2
g13
t(I3
(I0
tt(I4
(I5
tt(I5
(I5
tttp3187
I1
ssg18
I1
sbs(S'hoop'
p3188
S'the hope'
p3189
tp3190
g5
(g2
g6
NtRp3191
(dp3192
g9
g1
(g10
tRp3193
((I0
g13
t(I1
(I0
tttp3194
I1
ssg15
g1
(g10
tRp3195
((g12
(I0
tt(I0
(I1
tttp3196
I1
ssg18
I1
sbs(S'u een goede vakantie heeft gehad'
S'you enjoyed a pleasant festive period'
p3197
tp3198
g5
(g2
g6
NtRp3199
(dp3200
g9
g1
(g10
tRp3201
((I0
(I0
tt(I1
g13
t(I2
(I1
tt(I3
(I2
tt(I4
(I3
I4
I5
tt(I5
g13
ttp3202
I1
ssg15
g1
(g10
tRp3203
((g12
(I1
I5
tt(I0
(I0
tt(I1
(I2
tt(I2
(I3
tt(I3
(I4
tt(I4
(I4
tt(I5
(I4
tttp3204
I1
ssg18
I1
sbs(S'parlement , die op'
p3205
S'parliament adjourned on'
p3206
tp3207
g5
(g2
g6
NtRp3208
(dp3209
g9
g1
(g10
tRp3210
((I0
(I0
tt(I1
(I1
I2
tt(I2
(I3
tttp3211
I1
ssg15
g1
(g10
tRp3212
((I0
(I0
tt(I1
(I1
tt(I2
(I1
tt(I3
(I2
tttp3213
I1
ssg18
I1
sbs(S'millenniumbug " uitgebleven'
p3214
S"millennium bug ' failed"
p3215
tp3216
g5
(g2
g6
NtRp3217
(dp3218
g9
g1
(g10
tRp3219
((I0
(I0
tt(I1
(I0
I2
tt(I2
(I1
tt(I3
(I2
tttp3220
I1
ssg15
g1
(g10
tRp3221
((I0
(I0
I1
tt(I1
(I2
tt(I2
(I1
I3
tttp3222
I1
ssg18
I1
sbs(S'burgers'
p3223
S'people'
p3224
tp3225
g5
(g2
g6
NtRp3226
(dp3227
g9
g1
(g10
tRp3228
((I0
(I0
tttp3229
I1
ssg15
g1
(g10
tRp3230
((I0
(I0
tttp3231
I1
ssg18
I1
sbs(S'verzoek van een'
S'as a number of members have requested'
p3232
tp3233
g5
(g2
g6
NtRp3234
(dp3235
g9
g1
(g10
tRp3236
((g12
(I1
tt(I0
g13
t(I1
(I2
tt(I2
(I3
tt(I3
(I3
tt(I4
(I4
I5
I6
tt(I5
(I6
tt(I6
(I0
tttp3237
I1
ssg15
g1
(g10
tRp3238
((g12
(I0
I2
I3
I4
I5
tt(I0
(I6
tt(I1
g13
t(I2
(I1
tttp3239
I1
ssg18
I1
sbs(S'zitting van het europees'
p3240
S'session of the european'
p3241
tp3242
g5
(g2
g6
NtRp3243
(dp3244
g9
g1
(g10
tRp3245
((I0
(I0
tt(I1
(I1
tt(I2
(I2
tt(I3
(I3
tttp3246
I1
ssg15
g1
(g10
tRp3247
((I0
(I0
tt(I1
(I1
tt(I2
(I2
tt(I3
(I3
tttp3248
I1
ssg18
I1
sbs(S'" millenniumbug " uitgebleven'
p3249
S"' millennium bug ' failed"
p3250
tp3251
g5
(g2
g6
NtRp3252
(dp3253
g9
g1
(g10
tRp3254
((I0
(I0
tt(I1
(I1
tt(I2
(I1
I3
tt(I3
(I2
tt(I4
(I3
tttp3255
I1
ssg15
g1
(g10
tRp3256
((I0
(I0
tt(I1
(I1
I2
tt(I2
(I3
tt(I3
(I2
I4
tttp3257
I1
ssg18
I1
sbs(S'ik verklaar'
p3258
S'i declare resumed'
p3259
tp3260
g5
(g2
g6
NtRp3261
(dp3262
g9
g1
(g10
tRp3263
((I0
(I0
tt(I1
(I1
tt(I2
(I1
tttp3264
I1
ssg15
g1
(g10
tRp3265
((I0
(I0
tt(I1
(I1
I2
tttp3266
I1
ssg18
I1
sbs(S', te zijn hervat . ik'
p3267
S', and i'
p3268
tp3269
g5
(g2
g6
NtRp3270
(dp3271
g9
g1
(g10
tRp3272
((g12
(I1
I2
I3
tt(I0
(I0
tt(I1
(I4
tt(I2
(I5
tttp3273
I1
ssg15
g1
(g10
tRp3274
((I0
(I0
tt(I1
g13
t(I2
g13
t(I3
g13
t(I4
(I1
tt(I5
(I2
tttp3275
I1
ssg18
I1
sbs(S'wilt over'
p3276
g1199
tp3277
g5
(g2
g6
NtRp3278
(dp3279
g9
g1
(g10
tRp3280
((g12
(I0
tt(I0
(I1
tttp3281
I1
ssg15
g1
(g10
tRp3282
((I0
g13
t(I1
(I0
tttp3283
I1
ssg18
I1
sbs(S'u heeft'
p3284
S'you have'
p3285
tp3286
g5
(g2
g6
NtRp3287
(dp3288
g9
g1
(g10
tRp3289
((I0
(I0
tt(I1
(I1
tttp3290
I1
ssg15
g1
(g10
tRp3291
((I0
(I0
tt(I1
(I1
tttp3292
I1
ssg18
I1
sbs(S"een aantal collega ' s"
S'as a number of members have'
p3293
tp3294
g5
(g2
g6
NtRp3295
(dp3296
g9
g1
(g10
tRp3297
((I0
g13
t(I1
(I0
tt(I2
(I1
tt(I3
(I1
tt(I4
(I2
I3
I4
tt(I5
(I4
tttp3298
I1
ssg15
g1
(g10
tRp3299
((g12
(I0
tt(I0
(I1
tt(I1
(I2
I3
tt(I2
(I4
tt(I3
(I4
tt(I4
(I4
I5
tttp3300
I1
ssg18
I1
sbs(S'ik doel hiermee met name'
p3301
S'all the victims concerned , particularly'
tp3302
g5
(g2
g6
NtRp3303
(dp3304
g9
g1
(g10
tRp3305
((g12
(I0
I1
tt(I0
(I2
tt(I1
(I-3
tt(I2
(I-2
tt(I3
g13
t(I4
(I-1
tt(I5
(I3
I4
tttp3306
I1
ssg15
g1
(g10
tRp3307
((g12
(I1
I2
I3
I4
tt(I0
g13
t(I1
g13
t(I2
(I0
tt(I3
(I5
tt(I4
(I5
tttp3308
I1
ssg18
I1
sbs(S'ik wens'
p3309
S'i would like once again to wish'
p3310
tp3311
g5
(g2
g6
NtRp3312
(dp3313
g9
g1
(g10
tRp3314
((I0
(I0
tt(I1
(I1
tt(I2
(I1
tt(I3
g13
t(I4
g13
t(I5
g13
t(I6
(I1
tttp3315
I1
ssg15
g1
(g10
tRp3316
((g12
(I3
I4
I5
tt(I0
(I0
tt(I1
(I1
I2
I6
tttp3317
I1
ssg18
I1
sbs(S'zoals u'
S', as you'
p3318
tp3319
g5
(g2
g6
NtRp3320
(dp3321
g9
g1
(g10
tRp3322
((I0
g13
t(I1
(I0
tt(I2
(I1
tttp3323
I1
ssg15
g1
(g10
tRp3324
((g12
(I0
tt(I0
(I1
tt(I1
(I2
tttp3325
I1
ssg18
I1
sbs(S'december werd onderbroken , te zijn hervat'
p3326
S'december 1999 ,'
tp3327
g5
(g2
g6
NtRp3328
(dp3329
g9
g1
(g10
tRp3330
((g12
(I1
I2
I4
I5
I6
tt(I0
(I0
tt(I1
g13
t(I2
(I3
tttp3331
I1
ssg15
g1
(g10
tRp3332
((g12
(I1
tt(I0
(I0
tt(I1
g13
t(I2
g13
t(I3
(I2
tt(I4
g13
t(I5
g13
t(I6
g13
ttp3333
I1
ssg18
I1
sbs(S'u'
S'you enjoyed'
p3334
tp3335
g5
(g2
g6
NtRp3336
(dp3337
g9
g1
(g10
tRp3338
((I0
(I0
tt(I1
g13
ttp3339
I1
ssg15
g1
(g10
tRp3340
((g12
(I1
tt(I0
(I0
tttp3341
I1
ssg18
I1
sbs(S'heeft aangegeven'
p3342
S'have requested'
p3343
tp3344
g5
(g2
g6
NtRp3345
(dp3346
g9
g1
(g10
tRp3347
((I0
(I0
tt(I1
(I1
tttp3348
I1
ssg15
g1
(g10
tRp3349
((I0
(I0
tt(I1
(I1
tttp3350
I1
ssg18
I1
sbs(S'de grote "'
p3351
S"the dreaded '"
p3352
tp3353
g5
(g2
g6
NtRp3354
(dp3355
g9
g1
(g10
tRp3356
((I0
(I0
tt(I1
(I1
tt(I2
(I2
tttp3357
I1
ssg15
g1
(g10
tRp3358
((I0
(I0
tt(I1
(I1
tt(I2
(I2
tttp3359
I1
ssg18
I1
sbs(g603
S', as'
p3360
tp3361
g5
(g2
g6
NtRp3362
(dp3363
g9
g1
(g10
tRp3364
((I0
g13
t(I1
(I0
tttp3365
I1
ssg15
g1
(g10
tRp3366
((g12
(I0
tt(I0
(I1
tttp3367
I1
ssg18
I1
sbs(S'een aantal'
S'as a number of'
p3368
tp3369
g5
(g2
g6
NtRp3370
(dp3371
g9
g1
(g10
tRp3372
((I0
g13
t(I1
(I0
tt(I2
(I1
tt(I3
(I1
tttp3373
I1
ssg15
g1
(g10
tRp3374
((g12
(I0
tt(I0
(I1
tt(I1
(I2
I3
tttp3375
I1
ssg18
I1
sbs(S'neemt staande een minuut stilte in acht'
p3376
S"rose and observed a minute 's silence"
p3377
tp3378
g5
(g2
g6
NtRp3379
(dp3380
g9
g1
(g10
tRp3381
((I0
(I0
I1
tt(I1
g13
t(I2
(I1
tt(I3
(I2
tt(I4
(I3
tt(I5
(I4
tt(I6
(I4
I5
I6
tttp3382
I1
ssg15
g1
(g10
tRp3383
((g12
(I1
tt(I0
(I0
tt(I1
(I0
I2
tt(I2
(I3
tt(I3
(I4
tt(I4
(I5
I6
tt(I5
(I6
tt(I6
(I6
tttp3384
I1
ssg18
I1
sbs(S'ik wil u vragen'
S'please rise ,'
p3385
tp3386
g5
(g2
g6
NtRp3387
(dp3388
g9
g1
(g10
tRp3389
((I0
(I0
I1
I2
I3
tt(I1
g13
t(I2
g13
ttp3390
I1
ssg15
g1
(g10
tRp3391
((g12
(I1
I2
tt(I0
(I0
tt(I1
(I0
tt(I2
(I0
tt(I3
(I0
tttp3392
I1
ssg18
I1
sbs(S'ik wil u vragen'
p3393
S'please'
p3394
tp3395
g5
(g2
g6
NtRp3396
(dp3397
g9
g1
(g10
tRp3398
((I0
(I0
I1
I2
I3
tttp3399
I1
ssg15
g1
(g10
tRp3400
((I0
(I0
tt(I1
(I0
tt(I2
(I0
tt(I3
(I0
tttp3401
I1
ssg18
I1
sbs(S'( het parlement neemt staande'
p3402
S'( the house rose and observed'
p3403
tp3404
g5
(g2
g6
NtRp3405
(dp3406
g9
g1
(g10
tRp3407
((I0
(I0
tt(I1
(I1
tt(I2
(I2
tt(I3
(I3
I4
tt(I4
g13
t(I5
(I4
tttp3408
I1
ssg15
g1
(g10
tRp3409
((g12
(I4
tt(I0
(I0
tt(I1
(I1
tt(I2
(I2
tt(I3
(I3
tt(I4
(I3
I5
tttp3410
I1
ssg18
I1
sbs(S'parlement neemt staande'
p3411
S'house rose and observed'
p3412
tp3413
g5
(g2
g6
NtRp3414
(dp3415
g9
g1
(g10
tRp3416
((I0
(I0
tt(I1
(I1
I2
tt(I2
g13
t(I3
(I2
tttp3417
I1
ssg15
g1
(g10
tRp3418
((g12
(I2
tt(I0
(I0
tt(I1
(I1
tt(I2
(I1
I3
tttp3419
I1
ssg18
I1
sbs(S'vrijdag 17 december werd'
p3420
S'friday 17 december'
tp3421
g5
(g2
g6
NtRp3422
(dp3423
g9
g1
(g10
tRp3424
((g12
(I3
tt(I0
(I0
tt(I1
(I1
tt(I2
(I2
tttp3425
I1
ssg15
g1
(g10
tRp3426
((I0
(I0
tt(I1
(I1
tt(I2
(I2
tt(I3
g13
ttp3427
I1
ssg18
I1
sbs(S'vergaderperiode'
p3428
S', during this part - session'
tp3429
g5
(g2
g6
NtRp3430
(dp3431
g9
g1
(g10
tRp3432
((I0
g13
t(I1
(I0
tt(I2
(I-1
tt(I3
(I0
tt(I4
(I0
tt(I5
(I0
tttp3433
I1
ssg15
g1
(g10
tRp3434
((g12
(I0
I2
tt(I0
(I1
I3
I4
I5
tttp3435
I1
ssg18
I1
sbs(S'van de unie heeft'
p3436
S'of the european union'
tp3437
g5
(g2
g6
NtRp3438
(dp3439
g9
g1
(g10
tRp3440
((g12
(I3
tt(I0
(I0
tt(I1
(I1
tt(I2
(I2
tt(I3
(I2
tttp3441
I1
ssg15
g1
(g10
tRp3442
((I0
(I0
tt(I1
(I1
tt(I2
(I2
I3
tt(I3
g13
ttp3443
I1
ssg18
I1
sbs(S'u een'
p3444
S'you enjoyed a'
p3445
tp3446
g5
(g2
g6
NtRp3447
(dp3448
g9
g1
(g10
tRp3449
((I0
(I0
tt(I1
g13
t(I2
(I1
tttp3450
I1
ssg15
g1
(g10
tRp3451
((g12
(I1
tt(I0
(I0
tt(I1
(I2
tttp3452
I1
ssg18
I1
sbs(S'ik'
p3453
S'on'
p3454
tp3455
g5
(g2
g6
NtRp3456
(dp3457
g9
g1
(g10
tRp3458
((I0
(I0
tttp3459
I1
ssg15
g1
(g10
tRp3460
((I0
(I0
tttp3461
I1
ssg18
I1
sbs(S'ik wil een motie'
p3462
S'on a point'
p3463
tp3464
g5
(g2
g6
NtRp3465
(dp3466
g9
g1
(g10
tRp3467
((I0
(I0
tt(I1
(I2
tt(I2
(I1
I3
tttp3468
I2
ssg15
g1
(g10
tRp3469
((I0
(I0
tt(I1
(I2
tt(I2
(I1
tt(I3
(I2
tttp3470
I2
ssg18
I2
sbs(S'gelukkig nieuwjaar en hoop'
p3471
S'happy new year in the hope'
p3472
tp3473
g5
(g2
g6
NtRp3474
(dp3475
g9
g1
(g10
tRp3476
((I0
(I0
I1
tt(I1
(I1
tt(I2
(I1
tt(I3
(I2
tt(I4
g13
t(I5
(I3
tttp3477
I1
ssg15
g1
(g10
tRp3478
((g12
(I4
tt(I0
(I0
tt(I1
(I0
I1
I2
tt(I2
(I3
tt(I3
(I5
tttp3479
I1
ssg18
I1
sbs(S'kunnen constateren , is de grote'
p3480
S'will have seen , the dreaded'
tp3481
g5
(g2
g6
NtRp3482
(dp3483
g9
g1
(g10
tRp3484
((I0
(I0
tt(I1
(I-1
I1
tt(I2
(I0
I1
tt(I3
(I2
I3
tt(I4
(I4
tt(I5
(I5
tttp3485
I1
ssg15
g1
(g10
tRp3486
((I0
(I0
I2
tt(I1
(I1
I2
tt(I2
(I3
tt(I3
(I3
tt(I4
(I4
tt(I5
(I5
tttp3487
I1
ssg18
I1
sbs(S'( het'
p3488
S'( the'
p3489
tp3490
g5
(g2
g6
NtRp3491
(dp3492
g9
g1
(g10
tRp3493
((I0
(I0
tt(I1
(I1
tttp3494
I1
ssg15
g1
(g10
tRp3495
((I0
(I0
tt(I1
(I1
tttp3496
I1
ssg18
I1
sbs(S'onderbroken , te zijn hervat .'
p3497
S', and'
tp3498
g5
(g2
g6
NtRp3499
(dp3500
g9
g1
(g10
tRp3501
((g12
(I0
I2
I3
I4
tt(I0
(I1
tt(I1
(I5
tttp3502
I1
ssg15
g1
(g10
tRp3503
((I0
g13
t(I1
(I0
tt(I2
g13
t(I3
g13
t(I4
g13
t(I5
(I1
tttp3504
I1
ssg18
I1
sbs(S'de unie heeft geteisterd'
p3505
S'the european union'
tp3506
g5
(g2
g6
NtRp3507
(dp3508
g9
g1
(g10
tRp3509
((g12
(I2
I3
tt(I0
(I0
tt(I1
(I1
tt(I2
(I1
tttp3510
I1
ssg15
g1
(g10
tRp3511
((I0
(I0
tt(I1
(I1
I2
tt(I2
g13
t(I3
g13
ttp3512
I1
ssg18
I1
sbs(S'onderbroken , te zijn hervat . ik'
S'1999 , and i'
tp3513
g5
(g2
g6
NtRp3514
(dp3515
g9
g1
(g10
tRp3516
((g12
(I0
I2
I3
I4
tt(I0
g13
t(I1
(I1
tt(I2
(I5
tt(I3
(I6
tttp3517
I1
ssg15
g1
(g10
tRp3518
((g12
(I0
tt(I0
g13
t(I1
(I1
tt(I2
g13
t(I3
g13
t(I4
g13
t(I5
(I2
tt(I6
(I3
tttp3519
I1
ssg18
I1
sbs(S'wil ik graag'
S'meantime , i should like to'
tp3520
g5
(g2
g6
NtRp3521
(dp3522
g9
g1
(g10
tRp3523
((g12
(I2
tt(I0
g13
t(I1
g13
t(I2
(I1
tt(I3
(I0
tt(I4
(I0
tt(I5
(I0
tttp3524
I1
ssg15
g1
(g10
tRp3525
((g12
(I0
I1
tt(I0
(I3
I4
I5
tt(I1
(I2
tt(I2
g13
ttp3526
I1
ssg18
I1
sbs(S'hoop dat'
S'the hope that'
p3527
tp3528
g5
(g2
g6
NtRp3529
(dp3530
g9
g1
(g10
tRp3531
((I0
g13
t(I1
(I0
tt(I2
(I1
tttp3532
I1
ssg15
g1
(g10
tRp3533
((g12
(I0
tt(I0
(I1
tt(I1
(I2
tttp3534
I1
ssg18
I1
sbs(S'de burgers van'
S'still the people in'
p3535
tp3536
g5
(g2
g6
NtRp3537
(dp3538
g9
g1
(g10
tRp3539
((I0
g13
t(I1
(I0
tt(I2
(I1
tt(I3
(I2
tttp3540
I1
ssg15
g1
(g10
tRp3541
((g12
(I0
tt(I0
(I1
tt(I1
(I2
tt(I2
(I3
tttp3542
I1
ssg18
I1
sbs(S'en hoop dat u'
S'in the hope that you enjoyed'
p3543
tp3544
g5
(g2
g6
NtRp3545
(dp3546
g9
g1
(g10
tRp3547
((I0
(I0
tt(I1
g13
t(I2
(I1
tt(I3
(I2
tt(I4
(I3
tt(I5
g13
ttp3548
I1
ssg15
g1
(g10
tRp3549
((g12
(I1
I5
tt(I0
(I0
tt(I1
(I2
tt(I2
(I3
tt(I3
(I4
tttp3550
I1
ssg18
I1
sbs(S'verschrikkelijke natuurrampen getroffen .'
S'series of natural disasters that truly were dreadful .'
p3551
tp3552
g5
(g2
g6
NtRp3553
(dp3554
g9
g1
(g10
tRp3555
((g12
(I2
tt(I0
g13
t(I1
g13
t(I2
(I1
tt(I3
(I1
tt(I4
g13
t(I5
(I-2
tt(I6
(I-3
tt(I7
(I0
tt(I8
(I3
tttp3556
I1
ssg15
g1
(g10
tRp3557
((g12
(I0
I1
I4
I5
I6
tt(I0
(I7
tt(I1
(I2
I3
tt(I2
g13
t(I3
(I8
tttp3558
I1
ssg18
I1
sbs(S'17 december werd'
p3559
S'17 december'
tp3560
g5
(g2
g6
NtRp3561
(dp3562
g9
g1
(g10
tRp3563
((g12
(I2
tt(I0
(I0
tt(I1
(I1
tttp3564
I1
ssg15
g1
(g10
tRp3565
((I0
(I0
tt(I1
(I1
tt(I2
g13
ttp3566
I1
ssg18
I1
sbs(S'hervat . ik'
p3567
S'and i'
tp3568
g5
(g2
g6
NtRp3569
(dp3570
g9
g1
(g10
tRp3571
((g12
(I0
tt(I0
(I1
tt(I1
(I2
tttp3572
I1
ssg15
g1
(g10
tRp3573
((I0
g13
t(I1
(I0
tt(I2
(I1
tttp3574
I1
ssg18
I1
sbs(S'hoop dat u een'
S'the hope that you enjoyed a'
p3575
tp3576
g5
(g2
g6
NtRp3577
(dp3578
g9
g1
(g10
tRp3579
((I0
g13
t(I1
(I0
tt(I2
(I1
tt(I3
(I2
tt(I4
g13
t(I5
(I3
tttp3580
I1
ssg15
g1
(g10
tRp3581
((g12
(I0
I4
tt(I0
(I1
tt(I1
(I2
tt(I2
(I3
tt(I3
(I5
tttp3582
I1
ssg18
I1
sbs(S'onze lidstaten'
p3583
S'countries suffered a'
p3584
tp3585
g5
(g2
g6
NtRp3586
(dp3587
g9
g1
(g10
tRp3588
((I0
(I1
tt(I1
(I4
tt(I2
(I0
tttp3589
I1
ssg15
g1
(g10
tRp3590
((g12
(I1
tt(I0
(I2
tt(I1
(I0
tttp3591
I1
ssg18
I1
sbs(S'neemt staande een minuut'
p3592
S'rose and observed a minute'
p3593
tp3594
g5
(g2
g6
NtRp3595
(dp3596
g9
g1
(g10
tRp3597
((I0
(I0
I1
tt(I1
g13
t(I2
(I1
tt(I3
(I2
tt(I4
(I3
tttp3598
I1
ssg15
g1
(g10
tRp3599
((g12
(I1
tt(I0
(I0
tt(I1
(I0
I2
tt(I2
(I3
tt(I3
(I4
tttp3600
I1
ssg18
I1
sbs(S'wil een motie van orde stellen .'
p3601
S'a point of order .'
p3602
tp3603
g5
(g2
g6
NtRp3604
(dp3605
g9
g1
(g10
tRp3606
((g12
(I5
tt(I0
(I1
tt(I1
(I0
I2
tt(I2
(I3
tt(I3
(I4
tt(I4
(I6
tttp3607
I1
ssg15
g1
(g10
tRp3608
((I0
(I1
tt(I1
(I0
tt(I2
(I1
tt(I3
(I2
tt(I4
(I3
tt(I5
g13
t(I6
(I4
tttp3609
I1
ssg18
I1
sbs(S'werd onderbroken , te zijn'
p3610
S','
tp3611
g5
(g2
g6
NtRp3612
(dp3613
g9
g1
(g10
tRp3614
((g12
(I0
I1
I3
I4
tt(I0
(I2
tttp3615
I1
ssg15
g1
(g10
tRp3616
((I0
g13
t(I1
g13
t(I2
(I0
tt(I3
g13
t(I4
g13
ttp3617
I1
ssg18
I1
sbs(S'een minuut stilte in acht'
p3618
S"a minute 's silence"
p3619
tp3620
g5
(g2
g6
NtRp3621
(dp3622
g9
g1
(g10
tRp3623
((I0
(I0
tt(I1
(I1
tt(I2
(I2
tt(I3
(I2
I3
I4
tttp3624
I1
ssg15
g1
(g10
tRp3625
((I0
(I0
tt(I1
(I1
tt(I2
(I2
I3
tt(I3
(I3
tt(I4
(I3
tttp3626
I1
ssg18
I1
sbs(S'wil een motie'
p3627
S'a point'
p3628
tp3629
g5
(g2
g6
NtRp3630
(dp3631
g9
g1
(g10
tRp3632
((I0
(I1
tt(I1
(I0
I2
tttp3633
I1
ssg15
g1
(g10
tRp3634
((I0
(I1
tt(I1
(I0
tt(I2
(I1
tttp3635
I1
ssg18
I1
sbs(S','
S','
tp3636
g5
(g2
g6
NtRp3637
(dp3638
g9
g1
(g10
tRp3639
((I0
(I0
tttp3640
I2
ssg15
g1
(g10
tRp3641
((I0
(I0
tttp3642
I2
ssg18
I2
sbs(S'. de burgers'
S'materialise , still the people'
p3643
tp3644
g5
(g2
g6
NtRp3645
(dp3646
g9
g1
(g10
tRp3647
((I0
g13
t(I1
(I0
tt(I2
g13
t(I3
(I1
tt(I4
(I2
tttp3648
I1
ssg15
g1
(g10
tRp3649
((g12
(I0
I2
tt(I0
(I1
tt(I1
(I3
tt(I2
(I4
tttp3650
I1
ssg18
I1
sbs(S'van het europees parlement , die'
p3651
S'of the european parliament adjourned'
p3652
tp3653
g5
(g2
g6
NtRp3654
(dp3655
g9
g1
(g10
tRp3656
((I0
(I0
tt(I1
(I1
tt(I2
(I2
tt(I3
(I3
tt(I4
(I4
I5
tttp3657
I1
ssg15
g1
(g10
tRp3658
((I0
(I0
tt(I1
(I1
tt(I2
(I2
tt(I3
(I3
tt(I4
(I4
tt(I5
(I4
tttp3659
I1
ssg18
I1
sbs(S'de unie heeft geteisterd .'
p3660
S'the european union .'
p3661
tp3662
g5
(g2
g6
NtRp3663
(dp3664
g9
g1
(g10
tRp3665
((g12
(I2
I3
tt(I0
(I0
tt(I1
(I1
tt(I2
(I1
tt(I3
(I4
tttp3666
I1
ssg15
g1
(g10
tRp3667
((I0
(I0
tt(I1
(I1
I2
tt(I2
g13
t(I3
g13
t(I4
(I3
tttp3668
I1
ssg18
I1
sbs(S'verzoek van'
S'requested ,'
tp3669
g5
(g2
g6
NtRp3670
(dp3671
g9
g1
(g10
tRp3672
((g12
(I1
tt(I0
(I0
tt(I1
g13
ttp3673
I1
ssg15
g1
(g10
tRp3674
((g12
(I1
tt(I0
(I0
tt(I1
g13
ttp3675
I1
ssg18
I1
sbs(S'onderbroken , te zijn hervat'
S'1999 ,'
tp3676
g5
(g2
g6
NtRp3677
(dp3678
g9
g1
(g10
tRp3679
((g12
(I0
I2
I3
I4
tt(I0
g13
t(I1
(I1
tttp3680
I1
ssg15
g1
(g10
tRp3681
((g12
(I0
tt(I0
g13
t(I1
(I1
tt(I2
g13
t(I3
g13
t(I4
g13
ttp3682
I1
ssg18
I1
sbs(S'. de burgers'
S'to materialise , still the people'
p3683
tp3684
g5
(g2
g6
NtRp3685
(dp3686
g9
g1
(g10
tRp3687
((I0
g13
t(I1
g13
t(I2
(I0
tt(I3
g13
t(I4
(I1
tt(I5
(I2
tttp3688
I1
ssg15
g1
(g10
tRp3689
((g12
(I0
I1
I3
tt(I0
(I2
tt(I1
(I4
tt(I2
(I5
tttp3690
I1
ssg18
I1
sbs(S'een aantal'
p3691
S'a number of'
tp3692
g5
(g2
g6
NtRp3693
(dp3694
g9
g1
(g10
tRp3695
((I0
(I0
tt(I1
(I1
tt(I2
(I1
tttp3696
I1
ssg15
g1
(g10
tRp3697
((I0
(I0
tt(I1
(I1
I2
tttp3698
I1
ssg18
I1
sbs(S'de slachtoffers . ik doel'
p3699
S'the victims concerned ,'
tp3700
g5
(g2
g6
NtRp3701
(dp3702
g9
g1
(g10
tRp3703
((g12
(I3
I4
tt(I0
(I0
tt(I1
(I1
tt(I2
g13
t(I3
(I2
tttp3704
I1
ssg15
g1
(g10
tRp3705
((g12
(I2
tt(I0
(I0
tt(I1
(I1
tt(I2
(I3
tt(I3
g13
t(I4
g13
ttp3706
I1
ssg18
I1
sbs(S'vakantie heeft gehad .'
p3707
S'festive period .'
p3708
tp3709
g5
(g2
g6
NtRp3710
(dp3711
g9
g1
(g10
tRp3712
((I0
(I0
I1
I2
tt(I1
g13
t(I2
(I3
tttp3713
I1
ssg15
g1
(g10
tRp3714
((g12
(I1
tt(I0
(I0
tt(I1
(I0
tt(I2
(I0
tt(I3
(I2
tttp3715
I1
ssg18
I1
sbs(S'een goede'
S'enjoyed a pleasant'
p3716
tp3717
g5
(g2
g6
NtRp3718
(dp3719
g9
g1
(g10
tRp3720
((I0
g13
t(I1
(I0
tt(I2
(I1
tttp3721
I1
ssg15
g1
(g10
tRp3722
((g12
(I0
tt(I0
(I1
tt(I1
(I2
tttp3723
I1
ssg18
I1
sbs(S'december werd onderbroken'
S'december 1999'
tp3724
g5
(g2
g6
NtRp3725
(dp3726
g9
g1
(g10
tRp3727
((g12
(I1
I2
tt(I0
(I0
tt(I1
g13
ttp3728
I1
ssg15
g1
(g10
tRp3729
((g12
(I1
tt(I0
(I0
tt(I1
g13
t(I2
g13
ttp3730
I1
ssg18
I1
sbs(S'parlement , die op vrijdag 17 december'
p3731
S'parliament adjourned on friday 17 december'
p3732
tp3733
g5
(g2
g6
NtRp3734
(dp3735
g9
g1
(g10
tRp3736
((I0
(I0
tt(I1
(I1
I2
tt(I2
(I3
tt(I3
(I4
tt(I4
(I5
tt(I5
(I6
tttp3737
I1
ssg15
g1
(g10
tRp3738
((I0
(I0
tt(I1
(I1
tt(I2
(I1
tt(I3
(I2
tt(I4
(I3
tt(I5
(I4
tt(I6
(I5
tttp3739
I1
ssg18
I1
sbs(S'verschrikkelijke natuurrampen getroffen .'
p3740
S'natural disasters that truly were dreadful .'
p3741
tp3742
g5
(g2
g6
NtRp3743
(dp3744
g9
g1
(g10
tRp3745
((g12
(I2
tt(I0
(I1
tt(I1
(I1
tt(I2
g13
t(I3
(I-2
tt(I4
(I-3
tt(I5
(I0
tt(I6
(I3
tttp3746
I1
ssg15
g1
(g10
tRp3747
((g12
(I2
I3
I4
tt(I0
(I5
tt(I1
(I0
I1
tt(I2
g13
t(I3
(I6
tttp3748
I1
ssg18
I1
sbs(S'nu wil ik graag'
S', i should like to'
tp3749
g5
(g2
g6
NtRp3750
(dp3751
g9
g1
(g10
tRp3752
((g12
(I0
I3
tt(I0
g13
t(I1
(I2
tt(I2
(I1
tt(I3
(I1
tt(I4
(I1
tttp3753
I1
ssg15
g1
(g10
tRp3754
((g12
(I0
tt(I0
g13
t(I1
(I2
I3
I4
tt(I2
(I1
tt(I3
g13
ttp3755
I1
ssg18
I1
sbs(S'van een aantal'
p3756
S'a number of'
tp3757
g5
(g2
g6
NtRp3758
(dp3759
g9
g1
(g10
tRp3760
((g12
(I0
tt(I0
(I1
tt(I1
(I2
tt(I2
(I2
tttp3761
I1
ssg15
g1
(g10
tRp3762
((I0
g13
t(I1
(I0
tt(I2
(I1
I2
tttp3763
I1
ssg18
I1
sbs(S'dat'
p3764
S'the'
p3765
tp3766
g5
(g2
g6
NtRp3767
(dp3768
g9
g1
(g10
tRp3769
((I0
(I0
tttp3770
I1
ssg15
g1
(g10
tRp3771
((I0
(I0
tttp3772
I1
ssg18
I1
sbs(S'verschrikkelijke natuurrampen'
p3773
S'natural disasters that truly were dreadful'
p3774
tp3775
g5
(g2
g6
NtRp3776
(dp3777
g9
g1
(g10
tRp3778
((I0
(I1
tt(I1
(I1
tt(I2
g13
t(I3
(I-2
tt(I4
(I-3
tt(I5
(I0
tttp3779
I1
ssg15
g1
(g10
tRp3780
((g12
(I2
I3
I4
tt(I0
(I5
tt(I1
(I0
I1
tttp3781
I1
ssg18
I1
sbs(S'.'
S','
tp3782
g5
(g2
g6
NtRp3783
(dp3784
g9
g1
(g10
tRp3785
((I0
(I0
tttp3786
I2
ssg15
g1
(g10
tRp3787
((I0
(I0
tttp3788
I2
ssg18
I2
sbs(S'kunnen constateren , is de grote "'
p3789
S"will have seen , the dreaded '"
p3790
tp3791
g5
(g2
g6
NtRp3792
(dp3793
g9
g1
(g10
tRp3794
((I0
(I0
tt(I1
(I-1
I1
tt(I2
(I0
I1
tt(I3
(I2
I3
tt(I4
(I4
tt(I5
(I5
tt(I6
(I6
tttp3795
I1
ssg15
g1
(g10
tRp3796
((I0
(I0
I2
tt(I1
(I1
I2
tt(I2
(I3
tt(I3
(I3
tt(I4
(I4
tt(I5
(I5
tt(I6
(I6
tttp3797
I1
ssg18
I1
sbs(S'werd onderbroken , te zijn hervat'
S'1999 ,'
tp3798
g5
(g2
g6
NtRp3799
(dp3800
g9
g1
(g10
tRp3801
((g12
(I0
I1
I3
I4
I5
tt(I0
g13
t(I1
(I2
tttp3802
I1
ssg15
g1
(g10
tRp3803
((g12
(I0
tt(I0
g13
t(I1
g13
t(I2
(I1
tt(I3
g13
t(I4
g13
t(I5
g13
ttp3804
I1
ssg18
I1
sbs(S'grote " millenniumbug " uitgebleven'
p3805
S"dreaded ' millennium bug ' failed"
p3806
tp3807
g5
(g2
g6
NtRp3808
(dp3809
g9
g1
(g10
tRp3810
((I0
(I0
tt(I1
(I1
tt(I2
(I2
tt(I3
(I2
I4
tt(I4
(I3
tt(I5
(I4
tttp3811
I1
ssg15
g1
(g10
tRp3812
((I0
(I0
tt(I1
(I1
tt(I2
(I2
I3
tt(I3
(I4
tt(I4
(I3
I5
tttp3813
I1
ssg18
I1
sbs(g241
S'a series'
p3814
tp3815
g5
(g2
g6
NtRp3816
(dp3817
g9
g1
(g10
tRp3818
((I0
(I0
tt(I1
g13
ttp3819
I1
ssg15
g1
(g10
tRp3820
((g12
(I1
tt(I0
(I0
tttp3821
I1
ssg18
I1
sbs(g1721
S'requested ,'
p3822
tp3823
g5
(g2
g6
NtRp3824
(dp3825
g9
g1
(g10
tRp3826
((I0
(I0
tt(I1
g13
ttp3827
I1
ssg15
g1
(g10
tRp3828
((g12
(I1
tt(I0
(I0
tttp3829
I1
ssg18
I1
sbs(S'lidstaten van de unie heeft'
p3830
S'countries of the european union'
tp3831
g5
(g2
g6
NtRp3832
(dp3833
g9
g1
(g10
tRp3834
((g12
(I4
tt(I0
(I0
tt(I1
(I1
tt(I2
(I2
tt(I3
(I3
tt(I4
(I3
tttp3835
I1
ssg15
g1
(g10
tRp3836
((I0
(I0
tt(I1
(I1
tt(I2
(I2
tt(I3
(I3
I4
tt(I4
g13
ttp3837
I1
ssg18
I1
sbs(S'van de unie heeft geteisterd .'
p3838
S'of the european union .'
p3839
tp3840
g5
(g2
g6
NtRp3841
(dp3842
g9
g1
(g10
tRp3843
((g12
(I3
I4
tt(I0
(I0
tt(I1
(I1
tt(I2
(I2
tt(I3
(I2
tt(I4
(I5
tttp3844
I1
ssg15
g1
(g10
tRp3845
((I0
(I0
tt(I1
(I1
tt(I2
(I2
I3
tt(I3
g13
t(I4
g13
t(I5
(I4
tttp3846
I1
ssg18
I1
sbs(S'natuurrampen getroffen .'
S'series of natural disasters that truly were dreadful .'
tp3847
g5
(g2
g6
NtRp3848
(dp3849
g9
g1
(g10
tRp3850
((g12
(I1
tt(I0
g13
t(I1
g13
t(I2
(I0
tt(I3
(I0
tt(I4
g13
t(I5
(I-3
tt(I6
(I-4
tt(I7
(I-1
tt(I8
(I2
tttp3851
I1
ssg15
g1
(g10
tRp3852
((g12
(I0
I1
I4
I5
I6
I7
tt(I0
(I2
I3
tt(I1
g13
t(I2
(I8
tttp3853
I1
ssg18
I1
sbs(S'noodweer dat verschillende'
p3854
S'the terrible storms , in the various'
p3855
tp3856
g5
(g2
g6
NtRp3857
(dp3858
g9
g1
(g10
tRp3859
((I0
(I1
tt(I1
(I0
tt(I2
(I0
tt(I3
g13
t(I4
(I-5
tt(I5
(I-4
tt(I6
(I2
tttp3860
I1
ssg15
g1
(g10
tRp3861
((g12
(I3
I4
I5
tt(I0
(I1
I2
tt(I1
(I0
tt(I2
(I6
tttp3862
I1
ssg18
I1
sbs(S'op'
p3863
S'on'
p3864
tp3865
g5
(g2
g6
NtRp3866
(dp3867
g9
g1
(g10
tRp3868
((I0
(I0
tttp3869
I1
ssg15
g1
(g10
tRp3870
((I0
(I0
tttp3871
I1
ssg18
I1
sbs(S'de unie'
p3872
S'the european union'
p3873
tp3874
g5
(g2
g6
NtRp3875
(dp3876
g9
g1
(g10
tRp3877
((I0
(I0
tt(I1
(I1
tt(I2
(I1
tttp3878
I1
ssg15
g1
(g10
tRp3879
((I0
(I0
tt(I1
(I1
I2
tttp3880
I1
ssg18
I1
sbs(S'verklaar de zitting van het europees'
p3881
S'declare resumed the session of the european'
p3882
tp3883
g5
(g2
g6
NtRp3884
(dp3885
g9
g1
(g10
tRp3886
((I0
(I0
tt(I1
(I0
tt(I2
(I1
tt(I3
(I2
tt(I4
(I3
tt(I5
(I4
tt(I6
(I5
tttp3887
I1
ssg15
g1
(g10
tRp3888
((I0
(I0
I1
tt(I1
(I2
tt(I2
(I3
tt(I3
(I4
tt(I4
(I5
tt(I5
(I6
tttp3889
I1
ssg18
I1
sbs(S'de slachtoffers .'
p3890
S'the victims concerned ,'
p3891
tp3892
g5
(g2
g6
NtRp3893
(dp3894
g9
g1
(g10
tRp3895
((I0
(I0
tt(I1
(I1
tt(I2
g13
t(I3
(I2
tttp3896
I1
ssg15
g1
(g10
tRp3897
((g12
(I2
tt(I0
(I0
tt(I1
(I1
tt(I2
(I3
tttp3898
I1
ssg18
I1
sbs(S'nu wil ik graag'
S'meantime , i should like to'
tp3899
g5
(g2
g6
NtRp3900
(dp3901
g9
g1
(g10
tRp3902
((g12
(I0
I3
tt(I0
g13
t(I1
g13
t(I2
(I2
tt(I3
(I1
tt(I4
(I1
tt(I5
(I1
tttp3903
I1
ssg15
g1
(g10
tRp3904
((g12
(I0
I1
tt(I0
g13
t(I1
(I3
I4
I5
tt(I2
(I2
tt(I3
g13
ttp3905
I1
ssg18
I1
sbs(S'hervatting van de'
p3906
S'resumption of the'
p3907
tp3908
g5
(g2
g6
NtRp3909
(dp3910
g9
g1
(g10
tRp3911
((I0
(I0
tt(I1
(I1
tt(I2
(I2
tttp3912
I1
ssg15
g1
(g10
tRp3913
((I0
(I0
tt(I1
(I1
tt(I2
(I2
tttp3914
I1
ssg18
I1
sbs(S'wil ik graag'
S', i should like to'
tp3915
g5
(g2
g6
NtRp3916
(dp3917
g9
g1
(g10
tRp3918
((g12
(I2
tt(I0
g13
t(I1
(I1
tt(I2
(I0
tt(I3
(I0
tt(I4
(I0
tttp3919
I1
ssg15
g1
(g10
tRp3920
((g12
(I0
tt(I0
(I2
I3
I4
tt(I1
(I1
tt(I2
g13
ttp3921
I1
ssg18
I1
sbs(g927
S'december'
p3922
tp3923
g5
(g2
g6
NtRp3924
(dp3925
g9
g1
(g10
tRp3926
((I0
(I0
tttp3927
I1
ssg15
g1
(g10
tRp3928
((I0
(I0
tttp3929
I1
ssg18
I1
sbs(S'december werd onderbroken , te zijn'
p3930
S'december 1999 ,'
tp3931
g5
(g2
g6
NtRp3932
(dp3933
g9
g1
(g10
tRp3934
((g12
(I1
I2
I4
I5
tt(I0
(I0
tt(I1
g13
t(I2
(I3
tttp3935
I1
ssg15
g1
(g10
tRp3936
((g12
(I1
tt(I0
(I0
tt(I1
g13
t(I2
g13
t(I3
(I2
tt(I4
g13
t(I5
g13
ttp3937
I1
ssg18
I1
sbs(S'.'
S'concerned ,'
p3938
tp3939
g5
(g2
g6
NtRp3940
(dp3941
g9
g1
(g10
tRp3942
((I0
g13
t(I1
(I0
tttp3943
I1
ssg15
g1
(g10
tRp3944
((g12
(I0
tt(I0
(I1
tttp3945
I1
ssg18
I1
sbs(S"van een aantal collega ' s"
S', as a number of members have'
tp3946
g5
(g2
g6
NtRp3947
(dp3948
g9
g1
(g10
tRp3949
((g12
(I0
tt(I0
g13
t(I1
g13
t(I2
(I1
tt(I3
(I2
tt(I4
(I2
tt(I5
(I3
I4
I5
tt(I6
(I5
tttp3950
I1
ssg15
g1
(g10
tRp3951
((g12
(I0
I1
tt(I0
g13
t(I1
(I2
tt(I2
(I3
I4
tt(I3
(I5
tt(I4
(I5
tt(I5
(I5
I6
tttp3952
I1
ssg18
I1
sbs(S'17 december'
p3953
S'17 december'
p3954
tp3955
g5
(g2
g6
NtRp3956
(dp3957
g9
g1
(g10
tRp3958
((I0
(I0
tt(I1
(I1
tttp3959
I1
ssg15
g1
(g10
tRp3960
((I0
(I0
tt(I1
(I1
tttp3961
I1
ssg18
I1
sbs(S'graag op'
p3962
S'in'
p3963
tp3964
g5
(g2
g6
NtRp3965
(dp3966
g9
g1
(g10
tRp3967
((g12
(I0
tt(I0
(I1
tttp3968
I1
ssg15
g1
(g10
tRp3969
((I0
g13
t(I1
(I0
tttp3970
I1
ssg18
I1
sbs(S'u deze'
p3971
g801
tp3972
g5
(g2
g6
NtRp3973
(dp3974
g9
g1
(g10
tRp3975
((g12
(I0
tt(I0
(I1
tttp3976
I1
ssg15
g1
(g10
tRp3977
((I0
g13
t(I1
(I0
tttp3978
I1
ssg18
I1
sbs(S'parlement neemt staande een minuut'
p3979
S'house rose and observed a minute'
p3980
tp3981
g5
(g2
g6
NtRp3982
(dp3983
g9
g1
(g10
tRp3984
((I0
(I0
tt(I1
(I1
I2
tt(I2
g13
t(I3
(I2
tt(I4
(I3
tt(I5
(I4
tttp3985
I1
ssg15
g1
(g10
tRp3986
((g12
(I2
tt(I0
(I0
tt(I1
(I1
tt(I2
(I1
I3
tt(I3
(I4
tt(I4
(I5
tttp3987
I1
ssg18
I1
sbs(S'parlement neemt staande een'
p3988
S'house rose and observed a'
p3989
tp3990
g5
(g2
g6
NtRp3991
(dp3992
g9
g1
(g10
tRp3993
((I0
(I0
tt(I1
(I1
I2
tt(I2
g13
t(I3
(I2
tt(I4
(I3
tttp3994
I1
ssg15
g1
(g10
tRp3995
((g12
(I2
tt(I0
(I0
tt(I1
(I1
tt(I2
(I1
I3
tt(I3
(I4
tttp3996
I1
ssg18
I1
sbs(S'.'
S'materialise ,'
p3997
tp3998
g5
(g2
g6
NtRp3999
(dp4000
g9
g1
(g10
tRp4001
((I0
g13
t(I1
(I0
tttp4002
I1
ssg15
g1
(g10
tRp4003
((g12
(I0
tt(I0
(I1
tttp4004
I1
ssg18
I1
sbs(S'een'
p4005
S'a'
tp4006
g5
(g2
g6
NtRp4007
(dp4008
g9
g1
(g10
tRp4009
((I0
(I0
tttp4010
I8
ssg15
g1
(g10
tRp4011
((I0
(I0
tttp4012
I8
ssg18
I8
sbs(S'zijn hervat . ik'
p4013
S'and i'
tp4014
g5
(g2
g6
NtRp4015
(dp4016
g9
g1
(g10
tRp4017
((g12
(I0
I1
tt(I0
(I2
tt(I1
(I3
tttp4018
I1
ssg15
g1
(g10
tRp4019
((I0
g13
t(I1
g13
t(I2
(I0
tt(I3
(I1
tttp4020
I1
ssg18
I1
sbs(S"een aantal collega ' s"
S', as a number of members have'
p4021
tp4022
g5
(g2
g6
NtRp4023
(dp4024
g9
g1
(g10
tRp4025
((I0
g13
t(I1
g13
t(I2
(I0
tt(I3
(I1
tt(I4
(I1
tt(I5
(I2
I3
I4
tt(I6
(I4
tttp4026
I1
ssg15
g1
(g10
tRp4027
((g12
(I0
I1
tt(I0
(I2
tt(I1
(I3
I4
tt(I2
(I5
tt(I3
(I5
tt(I4
(I5
I6
tttp4028
I1
ssg18
I1
sbs(S'. de'
p4029
S', still the'
p4030
tp4031
g5
(g2
g6
NtRp4032
(dp4033
g9
g1
(g10
tRp4034
((I0
(I0
tt(I1
g13
t(I2
(I1
tttp4035
I1
ssg15
g1
(g10
tRp4036
((g12
(I1
tt(I0
(I0
tt(I1
(I2
tttp4037
I1
ssg18
I1
sbs(S'natuurrampen getroffen'
S'of natural disasters'
tp4038
g5
(g2
g6
NtRp4039
(dp4040
g9
g1
(g10
tRp4041
((g12
(I1
tt(I0
g13
t(I1
(I0
tt(I2
(I0
tttp4042
I1
ssg15
g1
(g10
tRp4043
((g12
(I0
tt(I0
(I1
I2
tt(I1
g13
ttp4044
I1
ssg18
I1
sbs(S'lidstaten van de unie heeft geteisterd .'
p4045
S'countries of the european union .'
p4046
tp4047
g5
(g2
g6
NtRp4048
(dp4049
g9
g1
(g10
tRp4050
((g12
(I4
I5
tt(I0
(I0
tt(I1
(I1
tt(I2
(I2
tt(I3
(I3
tt(I4
(I3
tt(I5
(I6
tttp4051
I1
ssg15
g1
(g10
tRp4052
((I0
(I0
tt(I1
(I1
tt(I2
(I2
tt(I3
(I3
I4
tt(I4
g13
t(I5
g13
t(I6
(I5
tttp4053
I1
ssg18
I1
sbs(S'hervatting'
p4054
S'resumption'
p4055
tp4056
g5
(g2
g6
NtRp4057
(dp4058
g9
g1
(g10
tRp4059
((I0
(I0
tttp4060
I1
ssg15
g1
(g10
tRp4061
((I0
(I0
tttp4062
I1
ssg18
I1
sbs(S'u een goede vakantie heeft gehad'
p4063
S'you enjoyed a pleasant festive'
p4064
tp4065
g5
(g2
g6
NtRp4066
(dp4067
g9
g1
(g10
tRp4068
((I0
(I0
tt(I1
g13
t(I2
(I1
tt(I3
(I2
tt(I4
(I3
I4
I5
tttp4069
I1
ssg15
g1
(g10
tRp4070
((g12
(I1
tt(I0
(I0
tt(I1
(I2
tt(I2
(I3
tt(I3
(I4
tt(I4
(I4
tt(I5
(I4
tttp4071
I1
ssg18
I1
sbs(S'hervatting van'
p4072
S'resumption of'
p4073
tp4074
g5
(g2
g6
NtRp4075
(dp4076
g9
g1
(g10
tRp4077
((I0
(I0
tt(I1
(I1
tttp4078
I1
ssg15
g1
(g10
tRp4079
((I0
(I0
tt(I1
(I1
tttp4080
I1
ssg18
I1
sbs(S'verschillende lidstaten van de unie heeft'
p4081
S'various countries of the european union'
tp4082
g5
(g2
g6
NtRp4083
(dp4084
g9
g1
(g10
tRp4085
((g12
(I5
tt(I0
(I0
tt(I1
(I1
tt(I2
(I2
tt(I3
(I3
tt(I4
(I4
tt(I5
(I4
tttp4086
I1
ssg15
g1
(g10
tRp4087
((I0
(I0
tt(I1
(I1
tt(I2
(I2
tt(I3
(I3
tt(I4
(I4
I5
tt(I5
g13
ttp4088
I1
ssg18
I1
sbs(S'dat u een goede vakantie heeft gehad'
S'that you enjoyed a pleasant festive period'
p4089
tp4090
g5
(g2
g6
NtRp4091
(dp4092
g9
g1
(g10
tRp4093
((I0
(I0
tt(I1
(I1
tt(I2
g13
t(I3
(I2
tt(I4
(I3
tt(I5
(I4
I5
I6
tt(I6
g13
ttp4094
I1
ssg15
g1
(g10
tRp4095
((g12
(I2
I6
tt(I0
(I0
tt(I1
(I1
tt(I2
(I3
tt(I3
(I4
tt(I4
(I5
tt(I5
(I5
tt(I6
(I5
tttp4096
I1
ssg18
I1
sbs(S'zijn'
p4097
S'were'
p4098
tp4099
g5
(g2
g6
NtRp4100
(dp4101
g9
g1
(g10
tRp4102
((I0
(I0
tttp4103
I1
ssg15
g1
(g10
tRp4104
((I0
(I0
tttp4105
I1
ssg18
I1
sbs(S'vrijdag 17 december'
S'friday 17 december 1999'
p4106
tp4107
g5
(g2
g6
NtRp4108
(dp4109
g9
g1
(g10
tRp4110
((I0
(I0
tt(I1
(I1
tt(I2
(I2
tt(I3
g13
ttp4111
I1
ssg15
g1
(g10
tRp4112
((g12
(I3
tt(I0
(I0
tt(I1
(I1
tt(I2
(I2
tttp4113
I1
ssg18
I1
sbs(g1670
S'then , for this'
p4114
tp4115
g5
(g2
g6
NtRp4116
(dp4117
g9
g1
(g10
tRp4118
((I0
g13
t(I1
g13
t(I2
g13
t(I3
(I0
tttp4119
I1
ssg15
g1
(g10
tRp4120
((g12
(I0
I1
I2
tt(I0
(I3
tttp4121
I1
ssg18
I1
sbs(S'parlement , die op vrijdag 17'
p4122
S'parliament adjourned on friday 17'
p4123
tp4124
g5
(g2
g6
NtRp4125
(dp4126
g9
g1
(g10
tRp4127
((I0
(I0
tt(I1
(I1
I2
tt(I2
(I3
tt(I3
(I4
tt(I4
(I5
tttp4128
I1
ssg15
g1
(g10
tRp4129
((I0
(I0
tt(I1
(I1
tt(I2
(I1
tt(I3
(I2
tt(I4
(I3
tt(I5
(I4
tttp4130
I1
ssg18
I1
sbs(S'verschrikkelijke natuurrampen'
S'series of natural disasters that truly were dreadful'
p4131
tp4132
g5
(g2
g6
NtRp4133
(dp4134
g9
g1
(g10
tRp4135
((I0
g13
t(I1
g13
t(I2
(I1
tt(I3
(I1
tt(I4
g13
t(I5
(I-2
tt(I6
(I-3
tt(I7
(I0
tttp4136
I1
ssg15
g1
(g10
tRp4137
((g12
(I0
I1
I4
I5
I6
tt(I0
(I7
tt(I1
(I2
I3
tttp4138
I1
ssg18
I1
sbs(S'17 december'
S'17 december 1999'
p4139
tp4140
g5
(g2
g6
NtRp4141
(dp4142
g9
g1
(g10
tRp4143
((I0
(I0
tt(I1
(I1
tt(I2
g13
ttp4144
I1
ssg15
g1
(g10
tRp4145
((g12
(I2
tt(I0
(I0
tt(I1
(I1
tttp4146
I1
ssg18
I1
sbs(S'een gelukkig nieuwjaar en hoop'
p4147
S'a happy new year in the hope'
p4148
tp4149
g5
(g2
g6
NtRp4150
(dp4151
g9
g1
(g10
tRp4152
((I0
(I0
tt(I1
(I1
I2
tt(I2
(I2
tt(I3
(I2
tt(I4
(I3
tt(I5
g13
t(I6
(I4
tttp4153
I1
ssg15
g1
(g10
tRp4154
((g12
(I5
tt(I0
(I0
tt(I1
(I1
tt(I2
(I1
I2
I3
tt(I3
(I4
tt(I4
(I6
tttp4155
I1
ssg18
I1
sbs(S'zitting'
p4156
S'session'
p4157
tp4158
g5
(g2
g6
NtRp4159
(dp4160
g9
g1
(g10
tRp4161
((I0
(I0
tttp4162
I1
ssg15
g1
(g10
tRp4163
((I0
(I0
tttp4164
I1
ssg18
I1
sbs(S'minuut'
p4165
S'observe a minute'
tp4166
g5
(g2
g6
NtRp4167
(dp4168
g9
g1
(g10
tRp4169
((I0
(I0
tt(I1
(I-1
tt(I2
(I0
tttp4170
I1
ssg15
g1
(g10
tRp4171
((g12
(I1
tt(I0
(I0
I2
tttp4172
I1
ssg18
I1
sbs(S'van de unie heeft geteisterd'
p4173
S'of the european union'
tp4174
g5
(g2
g6
NtRp4175
(dp4176
g9
g1
(g10
tRp4177
((g12
(I3
I4
tt(I0
(I0
tt(I1
(I1
tt(I2
(I2
tt(I3
(I2
tttp4178
I1
ssg15
g1
(g10
tRp4179
((I0
(I0
tt(I1
(I1
tt(I2
(I2
I3
tt(I3
g13
t(I4
g13
ttp4180
I1
ssg18
I1
sbs(S'natuurrampen getroffen'
S'of natural disasters that'
tp4181
g5
(g2
g6
NtRp4182
(dp4183
g9
g1
(g10
tRp4184
((g12
(I1
tt(I0
g13
t(I1
(I0
tt(I2
(I0
tt(I3
g13
ttp4185
I1
ssg15
g1
(g10
tRp4186
((g12
(I0
I3
tt(I0
(I1
I2
tt(I1
g13
ttp4187
I1
ssg18
I1
sbs(S'. de burgers van'
S'materialise , still the people in'
p4188
tp4189
g5
(g2
g6
NtRp4190
(dp4191
g9
g1
(g10
tRp4192
((I0
g13
t(I1
(I0
tt(I2
g13
t(I3
(I1
tt(I4
(I2
tt(I5
(I3
tttp4193
I1
ssg15
g1
(g10
tRp4194
((g12
(I0
I2
tt(I0
(I1
tt(I1
(I3
tt(I2
(I4
tt(I3
(I5
tttp4195
I1
ssg18
I1
sbs(S'zitting van het'
p4196
S'session of the'
p4197
tp4198
g5
(g2
g6
NtRp4199
(dp4200
g9
g1
(g10
tRp4201
((I0
(I0
tt(I1
(I1
tt(I2
(I2
tttp4202
I1
ssg15
g1
(g10
tRp4203
((I0
(I0
tt(I1
(I1
tt(I2
(I2
tttp4204
I1
ssg18
I1
sbs(S'nu wil ik'
p4205
S'i should like to'
tp4206
g5
(g2
g6
NtRp4207
(dp4208
g9
g1
(g10
tRp4209
((g12
(I0
tt(I0
(I2
tt(I1
(I1
tt(I2
(I1
tt(I3
(I1
tttp4210
I1
ssg15
g1
(g10
tRp4211
((I0
g13
t(I1
(I1
I2
I3
tt(I2
(I0
tttp4212
I1
ssg18
I1
sbs(S'heeft kunnen constateren , is'
p4213
S'will have seen ,'
p4214
tp4215
g5
(g2
g6
NtRp4216
(dp4217
g9
g1
(g10
tRp4218
((I0
(I1
tt(I1
(I0
I2
tt(I2
(I1
I2
tt(I3
(I3
I4
tttp4219
I1
ssg15
g1
(g10
tRp4220
((I0
(I1
tt(I1
(I0
I2
tt(I2
(I1
I2
tt(I3
(I3
tt(I4
(I3
tttp4221
I1
ssg18
I1
sbs(S'( het parlement'
p4222
S'( the house'
p4223
tp4224
g5
(g2
g6
NtRp4225
(dp4226
g9
g1
(g10
tRp4227
((I0
(I0
tt(I1
(I1
tt(I2
(I2
tttp4228
I1
ssg15
g1
(g10
tRp4229
((I0
(I0
tt(I1
(I1
tt(I2
(I2
tttp4230
I1
ssg18
I1
sbs(S'minuut'
S'minute'
p4231
tp4232
g5
(g2
g6
NtRp4233
(dp4234
g9
g1
(g10
tRp4235
((I0
(I0
tttp4236
I2
ssg15
g1
(g10
tRp4237
((I0
(I0
tttp4238
I2
ssg18
I2
sbs(g1670
S', then , for this'
p4239
tp4240
g5
(g2
g6
NtRp4241
(dp4242
g9
g1
(g10
tRp4243
((I0
g13
t(I1
g13
t(I2
g13
t(I3
g13
t(I4
(I0
tttp4244
I1
ssg15
g1
(g10
tRp4245
((g12
(I0
I1
I2
I3
tt(I0
(I4
tttp4246
I1
ssg18
I1
sbs(S'17 december werd onderbroken , te'
p4247
S'17 december 1999 ,'
tp4248
g5
(g2
g6
NtRp4249
(dp4250
g9
g1
(g10
tRp4251
((g12
(I2
I3
I5
tt(I0
(I0
tt(I1
(I1
tt(I2
g13
t(I3
(I4
tttp4252
I1
ssg15
g1
(g10
tRp4253
((g12
(I2
tt(I0
(I0
tt(I1
(I1
tt(I2
g13
t(I3
g13
t(I4
(I3
tt(I5
g13
ttp4254
I1
ssg18
I1
sbs(S'unie'
p4255
S'european union'
p4256
tp4257
g5
(g2
g6
NtRp4258
(dp4259
g9
g1
(g10
tRp4260
((I0
(I0
tt(I1
(I0
tttp4261
I1
ssg15
g1
(g10
tRp4262
((I0
(I0
I1
tttp4263
I1
ssg18
I1
sbs(S'december werd'
p4264
g3922
tp4265
g5
(g2
g6
NtRp4266
(dp4267
g9
g1
(g10
tRp4268
((g12
(I1
tt(I0
(I0
tttp4269
I1
ssg15
g1
(g10
tRp4270
((I0
(I0
tt(I1
g13
ttp4271
I1
ssg18
I1
sbs(S'parlement'
p4272
S'house'
p4273
tp4274
g5
(g2
g6
NtRp4275
(dp4276
g9
g1
(g10
tRp4277
((I0
(I0
tttp4278
I1
ssg15
g1
(g10
tRp4279
((I0
(I0
tttp4280
I1
ssg18
I1
sbs(S'het parlement neemt staande een minuut'
p4281
S'the house rose and observed a minute'
p4282
tp4283
g5
(g2
g6
NtRp4284
(dp4285
g9
g1
(g10
tRp4286
((I0
(I0
tt(I1
(I1
tt(I2
(I2
I3
tt(I3
g13
t(I4
(I3
tt(I5
(I4
tt(I6
(I5
tttp4287
I1
ssg15
g1
(g10
tRp4288
((g12
(I3
tt(I0
(I0
tt(I1
(I1
tt(I2
(I2
tt(I3
(I2
I4
tt(I4
(I5
tt(I5
(I6
tttp4289
I1
ssg18
I1
sbs(S'van een'
S'as a'
tp4290
g5
(g2
g6
NtRp4291
(dp4292
g9
g1
(g10
tRp4293
((g12
(I0
tt(I0
g13
t(I1
(I1
tttp4294
I1
ssg15
g1
(g10
tRp4295
((g12
(I0
tt(I0
g13
t(I1
(I1
tttp4296
I1
ssg18
I1
sbs(S'wil een motie van'
p4297
S'a point of'
p4298
tp4299
g5
(g2
g6
NtRp4300
(dp4301
g9
g1
(g10
tRp4302
((I0
(I1
tt(I1
(I0
I2
tt(I2
(I3
tttp4303
I1
ssg15
g1
(g10
tRp4304
((I0
(I1
tt(I1
(I0
tt(I2
(I1
tt(I3
(I2
tttp4305
I1
ssg18
I1
sbs(S'zitting van het europees parlement'
p4306
S'session of the european parliament'
p4307
tp4308
g5
(g2
g6
NtRp4309
(dp4310
g9
g1
(g10
tRp4311
((I0
(I0
tt(I1
(I1
tt(I2
(I2
tt(I3
(I3
tt(I4
(I4
tttp4312
I1
ssg15
g1
(g10
tRp4313
((I0
(I0
tt(I1
(I1
tt(I2
(I2
tt(I3
(I3
tt(I4
(I4
tttp4314
I1
ssg18
I1
sbs(S'werd onderbroken , te zijn hervat . ik'
S'1999 , and i'
tp4315
g5
(g2
g6
NtRp4316
(dp4317
g9
g1
(g10
tRp4318
((g12
(I0
I1
I3
I4
I5
tt(I0
g13
t(I1
(I2
tt(I2
(I6
tt(I3
(I7
tttp4319
I1
ssg15
g1
(g10
tRp4320
((g12
(I0
tt(I0
g13
t(I1
g13
t(I2
(I1
tt(I3
g13
t(I4
g13
t(I5
g13
t(I6
(I2
tt(I7
(I3
tttp4321
I1
ssg18
I1
sbs(S'verschillende lidstaten van de unie heeft geteisterd'
p4322
S'various countries of the european union'
tp4323
g5
(g2
g6
NtRp4324
(dp4325
g9
g1
(g10
tRp4326
((g12
(I5
I6
tt(I0
(I0
tt(I1
(I1
tt(I2
(I2
tt(I3
(I3
tt(I4
(I4
tt(I5
(I4
tttp4327
I1
ssg15
g1
(g10
tRp4328
((I0
(I0
tt(I1
(I1
tt(I2
(I2
tt(I3
(I3
tt(I4
(I4
I5
tt(I5
g13
t(I6
g13
ttp4329
I1
ssg18
I1
sbs(S', is de grote "'
p4330
S", the dreaded '"
p4331
tp4332
g5
(g2
g6
NtRp4333
(dp4334
g9
g1
(g10
tRp4335
((I0
(I0
I1
tt(I1
(I2
tt(I2
(I3
tt(I3
(I4
tttp4336
I1
ssg15
g1
(g10
tRp4337
((I0
(I0
tt(I1
(I0
tt(I2
(I1
tt(I3
(I2
tt(I4
(I3
tttp4338
I1
ssg18
I1
sbs(S'. ik'
p4339
S'and i'
p4340
tp4341
g5
(g2
g6
NtRp4342
(dp4343
g9
g1
(g10
tRp4344
((I0
(I0
tt(I1
(I1
tttp4345
I1
ssg15
g1
(g10
tRp4346
((I0
(I0
tt(I1
(I1
tttp4347
I1
ssg18
I1
sbs(S'dat u een goede vakantie heeft gehad'
p4348
S'that you enjoyed a pleasant festive'
p4349
tp4350
g5
(g2
g6
NtRp4351
(dp4352
g9
g1
(g10
tRp4353
((I0
(I0
tt(I1
(I1
tt(I2
g13
t(I3
(I2
tt(I4
(I3
tt(I5
(I4
I5
I6
tttp4354
I1
ssg15
g1
(g10
tRp4355
((g12
(I2
tt(I0
(I0
tt(I1
(I1
tt(I2
(I3
tt(I3
(I4
tt(I4
(I5
tt(I5
(I5
tt(I6
(I5
tttp4356
I1
ssg18
I1
sbs(S'debat wilt over'
p4357
S'debate on'
p4358
tp4359
g5
(g2
g6
NtRp4360
(dp4361
g9
g1
(g10
tRp4362
((g12
(I1
tt(I0
(I0
tt(I1
(I2
tttp4363
I1
ssg15
g1
(g10
tRp4364
((I0
(I0
tt(I1
g13
t(I2
(I1
tttp4365
I1
ssg18
I1
sbs(g3188
S'hope'
p4366
tp4367
g5
(g2
g6
NtRp4368
(dp4369
g9
g1
(g10
tRp4370
((I0
(I0
tttp4371
I1
ssg15
g1
(g10
tRp4372
((I0
(I0
tttp4373
I1
ssg18
I1
sbs(S', te zijn hervat .'
S'1999 , and'
p4374
tp4375
g5
(g2
g6
NtRp4376
(dp4377
g9
g1
(g10
tRp4378
((g12
(I1
I2
I3
tt(I0
g13
t(I1
(I0
tt(I2
(I4
tttp4379
I1
ssg15
g1
(g10
tRp4380
((g12
(I0
tt(I0
(I1
tt(I1
g13
t(I2
g13
t(I3
g13
t(I4
(I2
tttp4381
I1
ssg18
I1
sbs(S'van'
p4382
S'in'
p4383
tp4384
g5
(g2
g6
NtRp4385
(dp4386
g9
g1
(g10
tRp4387
((I0
(I0
tttp4388
I1
ssg15
g1
(g10
tRp4389
((I0
(I0
tttp4390
I1
ssg18
I1
sbs(g3428
S'during this part - session'
tp4391
g5
(g2
g6
NtRp4392
(dp4393
g9
g1
(g10
tRp4394
((I0
(I0
tt(I1
(I-1
tt(I2
(I0
tt(I3
(I0
tt(I4
(I0
tttp4395
I1
ssg15
g1
(g10
tRp4396
((g12
(I1
tt(I0
(I0
I2
I3
I4
tttp4397
I1
ssg18
I1
sbs(S'mevrouw de voorzitter , ik'
p4398
S'madam president , on'
p4399
tp4400
g5
(g2
g6
NtRp4401
(dp4402
g9
g1
(g10
tRp4403
((I0
(I0
tt(I1
(I1
I2
tt(I2
(I3
tt(I3
(I4
tttp4404
I1
ssg15
g1
(g10
tRp4405
((I0
(I0
tt(I1
(I1
tt(I2
(I1
tt(I3
(I2
tt(I4
(I3
tttp4406
I1
ssg18
I1
sbs(S'en hoop dat u'
p4407
S'in the hope that you'
p4408
tp4409
g5
(g2
g6
NtRp4410
(dp4411
g9
g1
(g10
tRp4412
((I0
(I0
tt(I1
g13
t(I2
(I1
tt(I3
(I2
tt(I4
(I3
tttp4413
I1
ssg15
g1
(g10
tRp4414
((g12
(I1
tt(I0
(I0
tt(I1
(I2
tt(I2
(I3
tt(I3
(I4
tttp4415
I1
ssg18
I1
sbs(S'u'
S'you'
tp4416
g5
(g2
g6
NtRp4417
(dp4418
g9
g1
(g10
tRp4419
((I0
(I0
tttp4420
I3
ssg15
g1
(g10
tRp4421
((I0
(I0
tttp4422
I3
ssg18
I3
sbs(S'deze vergaderperiode'
S', during this part - session'
p4423
tp4424
g5
(g2
g6
NtRp4425
(dp4426
g9
g1
(g10
tRp4427
((I0
g13
t(I1
(I1
tt(I2
(I0
tt(I3
(I1
tt(I4
(I1
tt(I5
(I1
tttp4428
I1
ssg15
g1
(g10
tRp4429
((g12
(I0
tt(I0
(I2
tt(I1
(I1
I3
I4
I5
tttp4430
I1
ssg18
I1
sbs(S'" millenniumbug " uitgebleven'
S"' millennium bug ' failed to materialise"
p4431
tp4432
g5
(g2
g6
NtRp4433
(dp4434
g9
g1
(g10
tRp4435
((I0
(I0
tt(I1
(I1
tt(I2
(I1
I3
tt(I3
(I2
tt(I4
(I3
tt(I5
g13
t(I6
g13
ttp4436
I1
ssg15
g1
(g10
tRp4437
((g12
(I5
I6
tt(I0
(I0
tt(I1
(I1
I2
tt(I2
(I3
tt(I3
(I2
I4
tttp4438
I1
ssg18
I1
sbs(S', te zijn hervat . ik'
S'1999 , and i'
p4439
tp4440
g5
(g2
g6
NtRp4441
(dp4442
g9
g1
(g10
tRp4443
((g12
(I1
I2
I3
tt(I0
g13
t(I1
(I0
tt(I2
(I4
tt(I3
(I5
tttp4444
I1
ssg15
g1
(g10
tRp4445
((g12
(I0
tt(I0
(I1
tt(I1
g13
t(I2
g13
t(I3
g13
t(I4
(I2
tt(I5
(I3
tttp4446
I1
ssg18
I1
sbs(S'verklaar'
p4447
S'declare resumed'
p4448
tp4449
g5
(g2
g6
NtRp4450
(dp4451
g9
g1
(g10
tRp4452
((I0
(I0
tt(I1
(I0
tttp4453
I1
ssg15
g1
(g10
tRp4454
((I0
(I0
I1
tttp4455
I1
ssg18
I1
sbs(S'u allen een gelukkig nieuwjaar'
p4456
S'you a happy new year'
p4457
tp4458
g5
(g2
g6
NtRp4459
(dp4460
g9
g1
(g10
tRp4461
((I0
(I0
I1
tt(I1
(I2
tt(I2
(I3
I4
tt(I3
(I4
tt(I4
(I4
tttp4462
I1
ssg15
g1
(g10
tRp4463
((I0
(I0
tt(I1
(I0
tt(I2
(I1
tt(I3
(I2
tt(I4
(I2
I3
I4
tttp4464
I1
ssg18
I1
sbs(S'nu wil ik'
S', i should like to'
tp4465
g5
(g2
g6
NtRp4466
(dp4467
g9
g1
(g10
tRp4468
((g12
(I0
tt(I0
g13
t(I1
(I2
tt(I2
(I1
tt(I3
(I1
tt(I4
(I1
tttp4469
I1
ssg15
g1
(g10
tRp4470
((g12
(I0
tt(I0
g13
t(I1
(I2
I3
I4
tt(I2
(I1
tttp4471
I1
ssg18
I1
sbs(S'burgers van een'
p4472
S'people in a'
p4473
tp4474
g5
(g2
g6
NtRp4475
(dp4476
g9
g1
(g10
tRp4477
((I0
(I0
tt(I1
(I1
tt(I2
(I2
tttp4478
I1
ssg15
g1
(g10
tRp4479
((I0
(I0
tt(I1
(I1
tt(I2
(I2
tttp4480
I1
ssg18
I1
sbs(S'december werd onderbroken ,'
p4481
S'december 1999 ,'
p4482
tp4483
g5
(g2
g6
NtRp4484
(dp4485
g9
g1
(g10
tRp4486
((g12
(I1
I2
tt(I0
(I0
tt(I1
g13
t(I2
(I3
tttp4487
I1
ssg15
g1
(g10
tRp4488
((g12
(I1
tt(I0
(I0
tt(I1
g13
t(I2
g13
t(I3
(I2
tttp4489
I1
ssg18
I1
sbs(S'lidstaten van de unie heeft geteisterd'
p4490
S'countries of the european union'
tp4491
g5
(g2
g6
NtRp4492
(dp4493
g9
g1
(g10
tRp4494
((g12
(I4
I5
tt(I0
(I0
tt(I1
(I1
tt(I2
(I2
tt(I3
(I3
tt(I4
(I3
tttp4495
I1
ssg15
g1
(g10
tRp4496
((I0
(I0
tt(I1
(I1
tt(I2
(I2
tt(I3
(I3
I4
tt(I4
g13
t(I5
g13
ttp4497
I1
ssg18
I1
sbs(S', is de grote'
p4498
S', the dreaded'
p4499
tp4500
g5
(g2
g6
NtRp4501
(dp4502
g9
g1
(g10
tRp4503
((I0
(I0
I1
tt(I1
(I2
tt(I2
(I3
tttp4504
I1
ssg15
g1
(g10
tRp4505
((I0
(I0
tt(I1
(I0
tt(I2
(I1
tt(I3
(I2
tttp4506
I1
ssg18
I1
sbs(S'aantal van onze'
S'number of countries suffered a series of'
p4507
tp4508
g5
(g2
g6
NtRp4509
(dp4510
g9
g1
(g10
tRp4511
((I0
(I0
tt(I1
(I0
I1
tt(I2
(I3
tt(I3
(I6
tt(I4
(I2
tt(I5
g13
t(I6
g13
ttp4512
I1
ssg15
g1
(g10
tRp4513
((g12
(I2
I3
I5
I6
tt(I0
(I0
I1
tt(I1
(I1
tt(I2
(I4
tttp4514
I1
ssg18
I1
sbs(S'wens u allen'
p4515
S'would like once again to wish you'
p4516
tp4517
g5
(g2
g6
NtRp4518
(dp4519
g9
g1
(g10
tRp4520
((I0
(I0
tt(I1
(I0
tt(I2
g13
t(I3
g13
t(I4
g13
t(I5
(I0
tt(I6
(I1
I2
tttp4521
I1
ssg15
g1
(g10
tRp4522
((g12
(I2
I3
I4
tt(I0
(I0
I1
I5
tt(I1
(I6
tt(I2
(I6
tttp4523
I1
ssg18
I1
sbs(S'ik wil u vragen deze'
p4524
S'please rise , then , for this'
p4525
tp4526
g5
(g2
g6
NtRp4527
(dp4528
g9
g1
(g10
tRp4529
((I0
(I0
I1
I2
I3
tt(I1
g13
t(I2
g13
t(I3
g13
t(I4
g13
t(I5
g13
t(I6
(I4
tttp4530
I1
ssg15
g1
(g10
tRp4531
((g12
(I1
I2
I3
I4
I5
tt(I0
(I0
tt(I1
(I0
tt(I2
(I0
tt(I3
(I0
tt(I4
(I6
tttp4532
I1
ssg18
I1
sbs(S'op de'
p4533
S'in the'
tp4534
g5
(g2
g6
NtRp4535
(dp4536
g9
g1
(g10
tRp4537
((I0
(I0
tt(I1
(I1
tttp4538
I1
ssg15
g1
(g10
tRp4539
((I0
(I0
tt(I1
(I1
tttp4540
I1
ssg18
I1
sbs(S'werd onderbroken ,'
S'1999 ,'
tp4541
g5
(g2
g6
NtRp4542
(dp4543
g9
g1
(g10
tRp4544
((g12
(I0
I1
tt(I0
g13
t(I1
(I2
tttp4545
I1
ssg15
g1
(g10
tRp4546
((g12
(I0
tt(I0
g13
t(I1
g13
t(I2
(I1
tttp4547
I1
ssg18
I1
sbs(g1033
S'terrible storms'
p4548
tp4549
g5
(g2
g6
NtRp4550
(dp4551
g9
g1
(g10
tRp4552
((I0
(I0
tt(I1
(I0
tttp4553
I1
ssg15
g1
(g10
tRp4554
((I0
(I0
I1
tttp4555
I1
ssg18
I1
sbs(S'europees parlement , die op'
p4556
S'european parliament adjourned on'
p4557
tp4558
g5
(g2
g6
NtRp4559
(dp4560
g9
g1
(g10
tRp4561
((I0
(I0
tt(I1
(I1
tt(I2
(I2
I3
tt(I3
(I4
tttp4562
I1
ssg15
g1
(g10
tRp4563
((I0
(I0
tt(I1
(I1
tt(I2
(I2
tt(I3
(I2
tt(I4
(I3
tttp4564
I1
ssg18
I1
sbs(S'deze minuut'
S'rise , then , for this minute'
p4565
tp4566
g5
(g2
g6
NtRp4567
(dp4568
g9
g1
(g10
tRp4569
((I0
g13
t(I1
g13
t(I2
g13
t(I3
g13
t(I4
g13
t(I5
(I0
tt(I6
(I1
tttp4570
I1
ssg15
g1
(g10
tRp4571
((g12
(I0
I1
I2
I3
I4
tt(I0
(I5
tt(I1
(I6
tttp4572
I1
ssg18
I1
sbs(S'wil ik'
S'meantime , i should like to'
p4573
tp4574
g5
(g2
g6
NtRp4575
(dp4576
g9
g1
(g10
tRp4577
((I0
g13
t(I1
g13
t(I2
(I1
tt(I3
(I0
tt(I4
(I0
tt(I5
(I0
tttp4578
I1
ssg15
g1
(g10
tRp4579
((g12
(I0
I1
tt(I0
(I3
I4
I5
tt(I1
(I2
tttp4580
I1
ssg18
I1
sbs(S'zoals u heeft kunnen constateren , is'
S'although , as you will have seen ,'
p4581
tp4582
g5
(g2
g6
NtRp4583
(dp4584
g9
g1
(g10
tRp4585
((I0
g13
t(I1
g13
t(I2
(I0
tt(I3
(I1
tt(I4
(I3
tt(I5
(I2
I4
tt(I6
(I3
I4
tt(I7
(I5
I6
tttp4586
I1
ssg15
g1
(g10
tRp4587
((g12
(I0
I1
tt(I0
(I2
tt(I1
(I3
tt(I2
(I5
tt(I3
(I4
I6
tt(I4
(I5
I6
tt(I5
(I7
tt(I6
(I7
tttp4588
I1
ssg18
I1
sbs(S'vrijdag 17 december werd onderbroken'
p4589
S'friday 17 december'
tp4590
g5
(g2
g6
NtRp4591
(dp4592
g9
g1
(g10
tRp4593
((g12
(I3
I4
tt(I0
(I0
tt(I1
(I1
tt(I2
(I2
tttp4594
I1
ssg15
g1
(g10
tRp4595
((I0
(I0
tt(I1
(I1
tt(I2
(I2
tt(I3
g13
t(I4
g13
ttp4596
I1
ssg18
I1
sbs(S', te zijn hervat .'
p4597
S', and'
p4598
tp4599
g5
(g2
g6
NtRp4600
(dp4601
g9
g1
(g10
tRp4602
((g12
(I1
I2
I3
tt(I0
(I0
tt(I1
(I4
tttp4603
I1
ssg15
g1
(g10
tRp4604
((I0
(I0
tt(I1
g13
t(I2
g13
t(I3
g13
t(I4
(I1
tttp4605
I1
ssg18
I1
sbs(S'unie heeft geteisterd .'
p4606
S'european union .'
p4607
tp4608
g5
(g2
g6
NtRp4609
(dp4610
g9
g1
(g10
tRp4611
((g12
(I1
I2
tt(I0
(I0
tt(I1
(I0
tt(I2
(I3
tttp4612
I1
ssg15
g1
(g10
tRp4613
((I0
(I0
I1
tt(I1
g13
t(I2
g13
t(I3
(I2
tttp4614
I1
ssg18
I1
sbs(S'van een aantal'
S'as a number of'
tp4615
g5
(g2
g6
NtRp4616
(dp4617
g9
g1
(g10
tRp4618
((g12
(I0
tt(I0
g13
t(I1
(I1
tt(I2
(I2
tt(I3
(I2
tttp4619
I1
ssg15
g1
(g10
tRp4620
((g12
(I0
tt(I0
g13
t(I1
(I1
tt(I2
(I2
I3
tttp4621
I1
ssg18
I1
sbs(S'slachtoffers van'
p4622
S'those of'
p4623
tp4624
g5
(g2
g6
NtRp4625
(dp4626
g9
g1
(g10
tRp4627
((I0
(I0
tt(I1
(I1
tttp4628
I1
ssg15
g1
(g10
tRp4629
((I0
(I0
tt(I1
(I1
tttp4630
I1
ssg18
I1
sbs(S'onderbroken , te zijn hervat .'
S'1999 , and'
tp4631
g5
(g2
g6
NtRp4632
(dp4633
g9
g1
(g10
tRp4634
((g12
(I0
I2
I3
I4
tt(I0
g13
t(I1
(I1
tt(I2
(I5
tttp4635
I1
ssg15
g1
(g10
tRp4636
((g12
(I0
tt(I0
g13
t(I1
(I1
tt(I2
g13
t(I3
g13
t(I4
g13
t(I5
(I2
tttp4637
I1
ssg18
I1
sbs(S'natuurrampen getroffen'
p4638
S'natural disasters'
tp4639
g5
(g2
g6
NtRp4640
(dp4641
g9
g1
(g10
tRp4642
((g12
(I1
tt(I0
(I0
tt(I1
(I0
tttp4643
I1
ssg15
g1
(g10
tRp4644
((I0
(I0
I1
tt(I1
g13
ttp4645
I1
ssg18
I1
sbs(S'op vrijdag 17 december werd onderbroken'
p4646
S'on friday 17 december'
tp4647
g5
(g2
g6
NtRp4648
(dp4649
g9
g1
(g10
tRp4650
((g12
(I4
I5
tt(I0
(I0
tt(I1
(I1
tt(I2
(I2
tt(I3
(I3
tttp4651
I1
ssg15
g1
(g10
tRp4652
((I0
(I0
tt(I1
(I1
tt(I2
(I2
tt(I3
(I3
tt(I4
g13
t(I5
g13
ttp4653
I1
ssg18
I1
sbs(S'minuut stilte staande in acht te nemen'
p4654
S"minute 's silence"
p4655
tp4656
g5
(g2
g6
NtRp4657
(dp4658
g9
g1
(g10
tRp4659
((I0
(I0
tt(I1
(I1
tt(I2
(I1
I2
I3
I4
I5
I6
tttp4660
I1
ssg15
g1
(g10
tRp4661
((I0
(I0
tt(I1
(I1
I2
tt(I2
(I2
tt(I3
(I2
tt(I4
(I2
tt(I5
(I2
tt(I6
(I2
tttp4662
I1
ssg18
I1
sbs(S'op de'
S', in the'
p4663
tp4664
g5
(g2
g6
NtRp4665
(dp4666
g9
g1
(g10
tRp4667
((I0
g13
t(I1
(I0
tt(I2
(I1
tttp4668
I1
ssg15
g1
(g10
tRp4669
((g12
(I0
tt(I0
(I1
tt(I1
(I2
tttp4670
I1
ssg18
I1
sbs(S'december werd onderbroken'
p4671
g3922
tp4672
g5
(g2
g6
NtRp4673
(dp4674
g9
g1
(g10
tRp4675
((g12
(I1
I2
tt(I0
(I0
tttp4676
I1
ssg15
g1
(g10
tRp4677
((I0
(I0
tt(I1
g13
t(I2
g13
ttp4678
I1
ssg18
I1
sbs(S'een goede vakantie heeft gehad'
S'enjoyed a pleasant festive'
p4679
tp4680
g5
(g2
g6
NtRp4681
(dp4682
g9
g1
(g10
tRp4683
((I0
g13
t(I1
(I0
tt(I2
(I1
tt(I3
(I2
I3
I4
tttp4684
I1
ssg15
g1
(g10
tRp4685
((g12
(I0
tt(I0
(I1
tt(I1
(I2
tt(I2
(I3
tt(I3
(I3
tt(I4
(I3
tttp4686
I1
ssg18
I1
sbs(S'op vrijdag'
p4687
S'on friday'
p4688
tp4689
g5
(g2
g6
NtRp4690
(dp4691
g9
g1
(g10
tRp4692
((I0
(I0
tt(I1
(I1
tttp4693
I1
ssg15
g1
(g10
tRp4694
((I0
(I0
tt(I1
(I1
tttp4695
I1
ssg18
I1
sbs(S', te'
p4696
S','
tp4697
g5
(g2
g6
NtRp4698
(dp4699
g9
g1
(g10
tRp4700
((g12
(I1
tt(I0
(I0
tttp4701
I1
ssg15
g1
(g10
tRp4702
((I0
(I0
tt(I1
g13
ttp4703
I1
ssg18
I1
sbs(S'op'
p4704
g3963
tp4705
g5
(g2
g6
NtRp4706
(dp4707
g9
g1
(g10
tRp4708
((I0
(I0
tttp4709
I2
ssg15
g1
(g10
tRp4710
((I0
(I0
tttp4711
I2
ssg18
I2
sbs(S'"'
S"'"
tp4712
g5
(g2
g6
NtRp4713
(dp4714
g9
g1
(g10
tRp4715
((I0
(I0
tttp4716
I2
ssg15
g1
(g10
tRp4717
((I0
(I0
tttp4718
I2
ssg18
I2
sbs(S'van de slachtoffers .'
p4719
S'of all the victims concerned ,'
p4720
tp4721
g5
(g2
g6
NtRp4722
(dp4723
g9
g1
(g10
tRp4724
((I0
(I0
tt(I1
(I6
tt(I2
(I1
tt(I3
(I2
tt(I4
g13
t(I5
(I3
tttp4725
I1
ssg15
g1
(g10
tRp4726
((g12
(I1
I4
tt(I0
(I0
tt(I1
(I2
tt(I2
(I3
tt(I3
(I5
tttp4727
I1
ssg18
I1
sbs(S'een debat wilt over'
p4728
S'a debate on'
p4729
tp4730
g5
(g2
g6
NtRp4731
(dp4732
g9
g1
(g10
tRp4733
((g12
(I2
tt(I0
(I0
tt(I1
(I1
tt(I2
(I3
tttp4734
I1
ssg15
g1
(g10
tRp4735
((I0
(I0
tt(I1
(I1
tt(I2
g13
t(I3
(I2
tttp4736
I1
ssg18
I1
sbs(S'dat u een goede'
p4737
S'that you enjoyed a pleasant'
p4738
tp4739
g5
(g2
g6
NtRp4740
(dp4741
g9
g1
(g10
tRp4742
((I0
(I0
tt(I1
(I1
tt(I2
g13
t(I3
(I2
tt(I4
(I3
tttp4743
I1
ssg15
g1
(g10
tRp4744
((g12
(I2
tt(I0
(I0
tt(I1
(I1
tt(I2
(I3
tt(I3
(I4
tttp4745
I1
ssg18
I1
sbs(S', te zijn'
p4746
S','
tp4747
g5
(g2
g6
NtRp4748
(dp4749
g9
g1
(g10
tRp4750
((g12
(I1
I2
tt(I0
(I0
tttp4751
I1
ssg15
g1
(g10
tRp4752
((I0
(I0
tt(I1
g13
t(I2
g13
ttp4753
I1
ssg18
I1
sbs(S'een minuut'
p4754
S'observe a minute'
p4755
tp4756
g5
(g2
g6
NtRp4757
(dp4758
g9
g1
(g10
tRp4759
((I0
(I1
tt(I1
(I0
tt(I2
(I1
tttp4760
I1
ssg15
g1
(g10
tRp4761
((I0
(I1
tt(I1
(I0
I2
tttp4762
I1
ssg18
I1
sbs.