ccollections
defaultdict
p1
(c__builtin__
int
p2
tRp3
S'all'
p4
I3
sS'that you enjoyed'
p5
I1
sS'i declare resumed the session of the'
p6
I1
sS'and i'
p7
I4
sS'to materialise , still the'
p8
I1
sS'on friday 17 december 1999 ,'
p9
I1
sS'will have seen , the dreaded'
p10
I2
sS'dreadful'
p11
I1
sS'you enjoyed a pleasant'
p12
I1
sS'the hope'
p13
I1
sS'please rise , then'
p14
I1
sS'suffered'
p15
I1
sS'resumption of the session'
p16
I1
sS'a debate on'
p17
I1
sS'minute'
p18
I2
sS'victims concerned ,'
p19
I3
sS'people in'
p20
I1
sS'the people in a number of'
p21
I1
sS"' millennium bug ' failed"
p22
I1
sS'on friday 17'
p23
I1
sS'to materialise , still the people'
p24
I1
sS', then , for this minute'
p25
I1
sS'friday 17 december'
p26
I3
sS'the terrible storms ,'
p27
I1
sS"millennium bug ' failed to"
p28
I1
sS'terrible storms ,'
p29
I1
sS', still the people in a'
p30
I1
sS'countries of the european union .'
p31
I1
sS'of all the'
p32
I1
sS'parliament adjourned on friday'
p33
I1
sS'to materialise ,'
p34
I1
sS'the dreaded'
p35
I1
sS'that you enjoyed a pleasant festive'
p36
I1
sS'you will have seen ,'
p37
I1
sS"millennium bug ' failed"
p38
I1
sS'festive'
p39
I1
sS'on a point of'
p40
I1
sS'materialise , still the people'
p41
I1
sS'happy new year'
p42
I1
sS'to materialise , still the people in a'
p43
I1
sS', as you will have seen'
p44
I1
sS'various countries'
p45
I1
sS"'s silence )"
p46
I1
sS'in the meantime , i'
p47
I1
sS"minute 's silence"
p48
I2
sS'the european union'
p49
I3
sS'countries suffered a'
p50
I1
sS'adjourned on friday 17 december 1999'
p51
I2
sS'the victims concerned ,'
p52
I3
sS'house rose and observed a minute'
p53
I1
sS'a number of members have requested ,'
p54
I1
sS'of all the victims concerned'
p55
I1
sS'this minute'
p56
I1
sS'that you enjoyed a pleasant'
p57
I1
sS'you a happy new year'
p58
I1
sS'still the people in'
p59
I1
sS'during this part - session'
p60
I3
sS', on a point of'
p61
I1
sS'a pleasant'
p62
I1
sS'parliament'
p63
I1
sS', then , for this'
p64
I1
sS'madam president , on'
p65
I1
sS'happy new year in the'
p66
I1
sS'the european parliament adjourned on friday'
p67
I1
sS'the session of the'
p68
I1
sS'people in a'
p69
I1
sS"' millennium bug ' failed to"
p70
I1
sS', for this'
p71
I1
sS'although , as you will have seen'
p72
I1
sS'this'
p73
I3
sS'session of the european parliament'
p74
I1
sS'in the hope that you enjoyed a'
p75
I1
sS'the hope that you enjoyed a pleasant'
p76
I1
sS'concerned ,'
p77
I3
sS'series of natural disasters that'
p78
I2
sS'december'
p79
I3
sS'the hope that'
p80
I1
sS', on a point of order'
p81
I1
sS'various countries of'
p82
I1
sS'on friday 17 december 1999'
p83
I3
sS'of the european parliament adjourned on'
p84
I1
sS'parliament adjourned on friday 17 december 1999'
p85
I1
sS'i declare resumed the'
p86
I1
sS'european union .'
p87
I1
sS'adjourned on friday 17 december'
p88
I2
sS'that you'
p89
I1
sS', the dreaded'
p90
I1
sS'please rise , then ,'
p91
I1
sS'a minute'
p92
I1
sS'friday 17 december 1999 ,'
p93
I2
sS'terrible storms'
p94
I1
sS'of natural disasters that'
p95
I2
sS'president'
p96
I1
sS'a'
I10
sS'the victims'
p97
I1
sS'all the victims concerned ,'
p98
I3
sS', still'
p99
I1
sS'of order .'
p100
I1
sS"dreaded ' millennium bug ' failed"
p101
I1
sS'a point'
p102
I1
sS'will have seen ,'
p103
I2
sS'president , on a point'
p104
I1
sS"dreaded '"
p105
I1
sS'order'
p106
I2
sS'the session'
p107
I2
sS'friday 17'
p108
I1
sS'natural disasters that truly were dreadful'
p109
I2
sS'on friday'
p110
I1
sS'countries suffered a series of'
p111
I1
sS'members have'
p112
I1
sS','
I18
sS'happy new year in the hope that'
p113
I1
sS'december 1999 ,'
p114
I4
sS"'s silence"
p115
I2
sS'please rise ,'
p116
I1
sS"a minute 's silence"
p117
I1
sS'requested ,'
p118
I2
sS'that truly were'
p119
I1
sS'in the hope'
p120
I1
sS'the people in'
p121
I1
sS'parliament adjourned on'
p122
I1
sS'parliament adjourned on friday 17'
p123
I1
sS'in the hope that'
p124
I1
sS', during this part - session'
p125
I3
sS'a happy new year in the'
p126
I1
sS'the people in a'
p127
I1
sS'various countries of the european union'
p128
I3
sS'house'
p129
I1
sS'session of the european'
p130
I1
sS'hope that'
p131
I1
sS'of the european union'
p132
I3
sS"'"
I2
sS'hope that you enjoyed'
p133
I1
sS'1999 , and'
p134
I3
sS'number of'
p135
I2
sS'countries of the european union'
p136
I3
sS'as a number of members have'
p137
I2
sS'still the people'
p138
I1
sS'materialise , still'
p139
I1
sS'friday'
p140
I1
sS'of the session'
p141
I1
sS'pleasant'
p142
I1
sS'madam president'
p143
I1
sS', i should like to'
p144
I4
sS'of the european parliament adjourned'
p145
I1
sS'of the european parliament'
p146
I1
sS'the european parliament'
p147
I1
sS'in the course'
p148
I2
sS'of natural disasters'
p149
I2
sS'for this'
p150
I1
sS'that you enjoyed a pleasant festive period'
p151
I1
sS'december 1999'
p152
I3
sS'of natural disasters that truly were dreadful .'
p153
I2
sS'of the european union .'
p154
I1
sS'adjourned on friday 17'
p155
I1
sS'the european union .'
p156
I1
sS'declare resumed the'
p157
I1
sS'session of'
p158
I1
sS'hope that you enjoyed a pleasant'
p159
I1
sS'friday 17 december 1999'
p160
I3
sS'all the victims concerned , particularly'
p161
I5
sS'resumption of the'
p162
I1
sS'you a happy new year in'
p163
I1
sS'adjourned'
p164
I1
sS'that'
p165
I1
sS'( the house rose and observed a'
p166
I1
sS'european parliament adjourned on'
p167
I1
sS', as you will have seen ,'
p168
I1
sS'17'
p169
I1
sS'of all the victims'
p170
I1
sS'enjoyed a pleasant festive'
p171
I1
sS'natural disasters that truly were dreadful .'
p172
I2
sS'i'
I4
sS'series of natural disasters'
p173
I2
sS'were'
p174
I1
sS'and'
p175
I4
sS'this subject in the course of the'
p176
I1
sS'happy new year in the hope'
p177
I1
sS'number of countries suffered a'
p178
I1
sS'have'
p179
I1
sS"rose and observed a minute 's silence"
p180
I1
sS'the house rose and observed a minute'
p181
I1
sS', in'
p182
I1
sS'a pleasant festive period'
p183
I1
sS'as a number of members have requested'
p184
I1
sS'i declare resumed the session'
p185
I1
sS'the people'
p186
I1
sS'declare resumed the session of the european'
p187
I1
sS'enjoyed a pleasant festive period'
p188
I1
sS'hope that you enjoyed a'
p189
I1
sS'as a'
p190
I2
sS'you enjoyed a pleasant festive period'
p191
I1
sS'enjoyed a pleasant festive period .'
p192
I1
sS'series of natural disasters that truly were dreadful .'
p193
I2
sS'will have seen'
p194
I2
sS'european parliament adjourned on friday 17'
p195
I1
sS'of order'
p196
I2
sS'the hope that you enjoyed a'
p197
I1
sS'particularly'
p198
I1
sS'still the people in a number of'
p199
I1
sS'i declare resumed the session of'
p200
I1
sS'the meantime'
p201
I1
sS'session'
p202
I1
sS'debate'
p203
I2
sS'madam president ,'
p204
I1
sS'enjoyed a'
p205
I1
sS'('
I1
sS'in the course of'
p206
I2
sS'a number of countries suffered a'
p207
I1
sS"dreaded ' millennium bug ' failed to"
p208
I1
sS'declare resumed the session'
p209
I1
sS"millennium bug ' failed to materialise"
p210
I1
sS'dreaded'
p211
I1
sS'hope'
p212
I1
sS'adjourned on'
p213
I1
sS'for this minute'
p214
I1
sS'truly'
p215
I1
sS'parliament adjourned on friday 17 december'
p216
I1
sS'debate on'
p217
I1
sS'european union'
p218
I3
sS'in the hope that you'
p219
I1
sS'a number of'
p220
I3
sS'happy new year in'
p221
I1
sS'countries'
p222
I2
sS'a happy new year in'
p223
I1
sS'a number of countries suffered a series'
p224
I1
sS'on a point'
p225
I1
sS', in the'
p226
I1
sS'pleasant festive'
p227
I1
sS'the session of'
p228
I1
sS'madam'
p229
I1
sS'of natural disasters that truly were dreadful'
p230
I2
sS'house rose and observed a'
p231
I1
sS'although , as'
p232
I1
sS'you will have seen'
p233
I1
sS'a pleasant festive period .'
p234
I1
sS'enjoyed a pleasant'
p235
I1
sS'on friday 17 december'
p236
I3
sS'rise , then , for this'
p237
I1
sS'please'
p238
I1
sS'as you'
p239
I1
sS'various'
p240
I1
sS', and i'
p241
I3
sS', and'
p242
I3
sS'although , as you will have seen ,'
p243
I1
sS'the terrible storms , in the various'
p244
I2
sS"millennium bug ' failed to materialise ,"
p245
I1
sS'you enjoyed a pleasant festive period .'
p246
I1
sS'the european'
p247
I1
sS'( the house'
p248
I1
sS'number of countries suffered a series'
p249
I1
sS', the'
p250
I1
sS'various countries of the'
p251
I1
sS'victims concerned'
p252
I1
sS'in the hope that you enjoyed'
p253
I1
sS'still the'
p254
I1
sS'number of countries suffered a series of'
p255
I1
sS'you have'
p256
I1
sS'you a happy new year in the'
p257
I1
sS'please rise , then , for'
p258
I1
sS'declare resumed the session of'
p259
I1
sS'truly were'
p260
I1
sS'in a'
p261
I1
sS"'s silence ."
p262
I1
sS'the hope that you'
p263
I1
sS'as a number of'
p264
I2
sS'the session of the european parliament'
p265
I1
sS'although , as you'
p266
I1
sS'those'
p267
I1
sS'in a number of'
p268
I1
sS'materialise , still the people in a'
p269
I1
sS'rise , then , for this minute'
p270
I1
sS'natural disasters that'
p271
I2
sS'the house'
p272
I1
sS'i declare resumed'
p273
I1
sS'you enjoyed a'
p274
I1
sS', i'
p275
I2
sS'countries of the'
p276
I1
sS', as'
p277
I1
sS'natural disasters'
p278
I2
sS'in'
p279
I7
sS'victims'
p280
I1
sS'a point of order'
p281
I2
sS'a number of members have requested'
p282
I1
sS'the european parliament adjourned'
p283
I1
sS"the dreaded '"
p284
I1
sS'then , for this'
p285
I1
sS'of all the victims concerned ,'
p286
I3
sS'materialise ,'
p287
I1
sS'european'
p288
I1
sS'a series'
p289
I1
sS'please rise , then , for this'
p290
I1
sS"will have seen , the dreaded '"
p291
I1
sS'european parliament adjourned on friday'
p292
I1
sS'adjourned on friday'
p293
I1
sS'i would like once again to wish'
p294
I1
sS'a happy new year'
p295
I1
sS'you enjoyed'
p296
I1
sS'european parliament'
p297
I1
sS'the'
p298
I11
sS', as you'
p299
I1
sS'will have seen , the'
p300
I2
sS'( the'
p301
I1
sS'the terrible storms'
p302
I1
sS'of the'
p303
I3
sS'a point of order .'
p304
I1
sS'that you enjoyed a'
p305
I1
sS'please rise'
p306
I1
sS'a debate'
p307
I2
sS'house rose and observed'
p308
I1
sS'resumption of'
p309
I1
sS'countries of'
p310
I1
sS'in the'
p311
I4
sS'festive period'
p312
I1
sS'a number of members have'
p313
I2
sS'the european parliament adjourned on'
p314
I1
sS'you have requested'
p315
I1
sS'17 december 1999 ,'
p316
I3
sS'people'
p317
I1
sS'a point of'
p318
I1
sS'then , for this minute'
p319
I1
sS'have requested'
p320
I1
sS'rose and observed a minute'
p321
I1
sS'festive period .'
p322
I1
sS'number of members have'
p323
I1
sS'of the european'
p324
I1
sS'would like once again to wish you'
p325
I1
sS'materialise , still the'
p326
I1
sS'you a'
p327
I1
sS'on a point of order'
p328
I2
sS'the house rose and observed'
p329
I1
sS'european parliament adjourned'
p330
I1
sS', still the'
p331
I1
sS'on'
p332
I4
sS'countries suffered a series'
p333
I1
sS'meantime , i'
p334
I2
sS'of'
p335
I6
sS"the dreaded ' millennium bug ' failed"
p336
I1
sS'materialise , still the people in'
p337
I1
sS', as a number of members have'
p338
I2
sS'the session of the european'
p339
I1
sS', still the people'
p340
I1
sS'you enjoyed a pleasant festive'
p341
I1
sS'1999 ,'
p342
I12
sS'to materialise , still'
p343
I1
sS"' millennium bug ' failed to materialise"
p344
I1
sS'those of'
p345
I1
sS'the house rose and observed a'
p346
I1
sS', on'
p347
I1
sS'a happy new year in the hope'
p348
I1
sS'pleasant festive period .'
p349
I1
sS'order .'
p350
I1
sS'the meantime ,'
p351
I1
sS', as a number of members have requested'
p352
I1
sS"minute 's silence )"
p353
I1
sS'rose and observed'
p354
I1
sS'still the people in a'
p355
I1
sS'that truly'
p356
I1
sS", the dreaded '"
p357
I1
sS'as you will have seen ,'
p358
I1
sS', still the people in'
p359
I1
sS'declare resumed'
p360
I1
sS'rose and observed a'
p361
I1
sS"a minute 's silence )"
p362
I1
sS', as a number of'
p363
I2
sS'president , on'
p364
I1
sS'session of the'
p365
I1
sS'( the house rose and observed'
p366
I1
sS', for this minute'
p367
I1
sS'resumption'
p368
I1
sS'as'
p369
I1
sS'session of the european parliament adjourned'
p370
I1
sS'the hope that you enjoyed'
p371
I1
sS'observe a minute'
p372
I2
sS', on a point'
p373
I1
sS'would like once again to wish'
p374
I1
sS'the victims concerned'
p375
I1
sS'meantime , i should like to'
p376
I4
sS'requested a debate on this subject in'
p377
I2
sS'to materialise , still the people in'
p378
I1
sS'17 december'
p379
I3
sS', as a'
p380
I2
sS'hope that you'
p381
I1
sS'as you will have seen'
p382
I1
sS'you'
p383
I4
sS'1999 , and i'
p384
I3
sS'requested'
p385
I3
sS'i should like to'
p386
I4
sS'a series of'
p387
I1
sS'you will have seen , the'
p388
I1
sS'17 december 1999'
p389
I3
sS'series of natural disasters that truly were dreadful'
p390
I2
sS'president ,'
p391
I1
sS'parliament adjourned'
p392
I1
sS'a pleasant festive'
p393
I1
sS'people in a number of'
p394
I1
sS'pleasant festive period'
p395
I1
sS'should like to'
p396
I2
sS'in a number of countries suffered a'
p397
I1
sS'declare resumed the session of the'
p398
I1
s.