ccollections
defaultdict
p1
(c__builtin__
int
p2
tRp3
S'. ik doel hiermee met name'
p4
I1
sS'hervatting van'
p5
I1
sS"een aantal collega ' s"
p6
I3
sS'ik wil een motie van'
p7
I1
sS'zitting van het europees parlement'
p8
I1
sS'. ik doel hiermee'
p9
I1
sS'december werd onderbroken'
p10
I2
sS'verzoek van'
p11
I2
sS'onderbroken , te'
p12
I2
sS'onderbroken , te zijn hervat . ik'
p13
I2
sS', ik wil een motie van'
p14
I1
sS'te zijn hervat . ik'
p15
I1
sS'het parlement neemt staande een minuut'
p16
I1
sS'heeft aangegeven'
p17
I1
sS'17 december werd onderbroken , te zijn'
p18
I1
sS'ik wens'
p19
I1
sS', is de'
p20
I1
sS'grote'
p21
I1
sS'europees parlement'
p22
I1
sS'europees parlement , die'
p23
I1
sS'( het'
p24
I1
sS'grote "'
p25
I1
sS'op vrijdag 17 december werd onderbroken ,'
p26
I1
sS'hervat . ik'
p27
I1
sS'aantal van'
p28
I1
sS'parlement , die op vrijdag'
p29
I1
sS'de zitting van het europees'
p30
I1
sS'orde'
p31
I1
sS'werd onderbroken ,'
p32
I2
sS', die op vrijdag'
p33
I1
sS'gelukkig nieuwjaar'
p34
I1
sS'wil een motie van orde stellen'
p35
I1
sS'van het europees parlement'
p36
I1
sS'slachtoffers . ik'
p37
I1
sS'neemt staande een minuut'
p38
I1
sS'ik wil u vragen'
p39
I6
sS'burgers van een aantal van'
p40
I1
sS'zitting van het europees parlement , die'
p41
I1
sS'de unie heeft'
p42
I1
sS', ik wil een motie'
p43
I1
sS'werd onderbroken , te'
p44
I2
sS'millenniumbug " uitgebleven .'
p45
I1
sS'de zitting'
p46
I2
sS'de grote "'
p47
I1
sS'de voorzitter'
p48
I1
sS'zijn hervat . ik'
p49
I1
sS'ik graag'
p50
I3
sS'wilt over'
p51
I1
sS'het europees parlement'
p52
I1
sS'slachtoffers van'
p53
I1
sS'en hoop dat u'
p54
I2
sS'van de zitting'
p55
I1
sS'stilte in acht'
p56
I1
sS'europees parlement , die op vrijdag'
p57
I1
sS'verzoek van een'
p58
I4
sS'wil'
p59
I1
sS'unie'
p60
I1
sS'noodweer'
p61
I2
sS'verschillende lidstaten van de unie heeft geteisterd'
p62
I1
sS'zijn'
p63
I1
sS'zitting van het'
p64
I1
sS'deze vergaderperiode'
p65
I2
sS'lidstaten van de'
p66
I1
sS'de zitting van'
p67
I1
sS'het europees parlement , die'
p68
I1
sS'door'
p69
I1
sS'wil een motie van orde'
p70
I1
sS'nu wil ik'
p71
I3
sS'mevrouw'
p72
I1
sS'december werd onderbroken , te zijn'
p73
I1
sS'vrijdag 17 december werd onderbroken , te'
p74
I1
sS'lidstaten van de unie heeft geteisterd .'
p75
I1
sS'natuurrampen getroffen'
p76
I6
sS'verklaar de zitting van het europees'
p77
I1
sS'december'
p78
I2
sS'van orde'
p79
I1
sS'lidstaten van de unie'
p80
I1
sS'op vrijdag 17 december werd'
p81
I2
sS'zijn daarentegen'
p82
I2
sS'zijn hervat .'
p83
I1
sS'kunnen constateren , is de grote "'
p84
I1
sS'met name'
p85
I1
sS'de burgers'
p86
I2
sS'een aantal van'
p87
I1
sS'van de unie heeft geteisterd .'
p88
I1
sS'u heeft'
p89
I1
sS'heeft kunnen constateren , is'
p90
I1
sS'van orde stellen'
p91
I1
sS'hiermee'
p92
I1
sS'aantal'
p93
I1
sS'verschrikkelijke natuurrampen getroffen'
p94
I3
sS'burgers van een'
p95
I1
sS'( het parlement'
p96
I1
sS'ik graag op'
p97
I1
sS'slachtoffers . ik doel hiermee met name'
p98
I1
sS'ik wil u vragen deze'
p99
I1
sS'over'
p100
I1
sS'noodweer dat'
p101
I2
sS'de grote " millenniumbug " uitgebleven'
p102
I1
sS'werd onderbroken , te zijn hervat'
p103
I2
sS'van een aantal van'
p104
I1
sS'unie heeft geteisterd .'
p105
I1
sS'onderbroken , te zijn hervat'
p106
I2
sS','
I3
sS'ik doel hiermee met name'
p107
I1
sS"aantal collega ' s"
p108
I1
sS'onderbroken , te zijn hervat .'
p109
I2
sS'dat'
p110
I6
sS'en hoop dat u een'
p111
I1
sS'de slachtoffers . ik doel hiermee'
p112
I1
sS'mevrouw de voorzitter ,'
p113
I1
sS'debat wilt over'
p114
I1
sS'van het europees parlement , die op'
p115
I1
sS'wens'
p116
I1
sS'ik verklaar de'
p117
I1
sS'en'
p118
I2
sS'verklaar de zitting van'
p119
I1
sS'op vrijdag 17 december werd onderbroken'
p120
I2
sS'u een'
p121
I1
sS'ik wil een motie van orde'
p122
I1
sS'december werd onderbroken , te zijn hervat'
p123
I1
sS', is de grote "'
p124
I1
sS'onderbroken , te zijn'
p125
I2
sS'een goede'
p126
I2
sS'verschrikkelijke natuurrampen'
p127
I3
sS'een gelukkig nieuwjaar en'
p128
I2
sS'vergaderperiode'
p129
I2
sS'en hoop'
p130
I1
sS'europees parlement , die op vrijdag 17'
p131
I1
sS'kunnen constateren , is de grote'
p132
I1
sS'( het parlement neemt staande'
p133
I1
sS'minuut stilte in acht )'
p134
I1
sS'hoop'
p135
I2
sS'parlement neemt staande een minuut'
p136
I1
sS'unie heeft geteisterd'
p137
I1
sS'zoals u heeft kunnen constateren , is'
p138
I3
sS'van orde stellen .'
p139
I1
sS'"'
I2
sS'ik verklaar'
p140
I1
sS'het europees parlement , die op'
p141
I1
sS'een aantal'
p142
I3
sS'vrijdag 17'
p143
I1
sS'orde stellen .'
p144
I1
sS'december werd onderbroken ,'
p145
I1
sS'17 december werd onderbroken , te'
p146
I1
sS'zoals u'
p147
I3
sS'verschillende lidstaten van de unie heeft'
p148
I1
sS'van het'
p149
I1
sS'u heeft kunnen constateren , is'
p150
I1
sS'mevrouw de voorzitter'
p151
I1
sS'slachtoffers .'
p152
I1
sS'kunnen constateren , is de'
p153
I1
sS'17'
p154
I1
sS'aangegeven'
p155
I1
sS'verklaar de zitting van het'
p156
I1
sS'burgers van'
p157
I1
sS'heeft kunnen constateren , is de grote'
p158
I1
sS'gelukkig nieuwjaar en'
p159
I2
sS'u allen een'
p160
I1
sS'de slachtoffers .'
p161
I1
sS'mevrouw de voorzitter , ik'
p162
I1
sS'17 december werd onderbroken'
p163
I2
sS'onze'
p164
I3
sS'ik wil een motie van orde stellen'
p165
I1
sS'verschillende lidstaten van de'
p166
I1
sS', ik'
p167
I1
sS'" millenniumbug " uitgebleven'
p168
I3
sS', is'
p169
I1
sS'( het parlement neemt staande een'
p170
I1
sS'het parlement neemt staande een'
p171
I1
sS'u allen'
p172
I1
sS'het parlement neemt staande'
p173
I1
sS'graag op'
p174
I1
sS'zoals'
p175
I3
sS'wil ik'
p176
I3
sS'u deze'
p177
I1
sS', te zijn hervat .'
p178
I2
sS'vrijdag 17 december werd onderbroken'
p179
I2
sS'december werd'
p180
I2
sS'doel hiermee'
p181
I1
sS'hoop dat'
p182
I2
sS'de burgers van een'
p183
I2
sS'onderbroken ,'
p184
I2
sS'de burgers van een aantal van'
p185
I2
sS'natuurrampen'
p186
I6
sS'een goede vakantie heeft gehad'
p187
I4
sS'parlement neemt staande'
p188
I1
sS'op vrijdag'
p189
I1
sS'('
I1
sS'parlement'
p190
I2
sS'de'
p191
I8
sS'wens u allen'
p192
I1
sS'de unie'
p193
I1
sS'heeft kunnen constateren , is de'
p194
I1
sS'hiermee met name'
p195
I1
sS'wil een motie van'
p196
I1
sS'europees parlement , die op'
p197
I1
sS'stilte staande in acht te nemen'
p198
I1
sS'ik verklaar de zitting van'
p199
I1
sS'daarentegen'
p200
I2
sS'van de unie heeft'
p201
I1
sS'een aantal van onze'
p202
I2
sS'de unie heeft geteisterd'
p203
I1
sS'. de burgers'
p204
I3
sS'wil een motie van orde stellen .'
p205
I1
sS'een goede vakantie heeft gehad .'
p206
I2
sS'zitting van'
p207
I1
sS'17 december werd onderbroken ,'
p208
I1
sS'vrijdag 17 december'
p209
I2
sS'debat'
p210
I1
sS', die'
p211
I1
sS'stilte staande in acht te nemen .'
p212
I1
sS'vrijdag 17 december werd'
p213
I2
sS'vrijdag 17 december werd onderbroken ,'
p214
I1
sS'verzoek'
p215
I2
sS'u een goede'
p216
I1
sS'slachtoffers . ik doel hiermee'
p217
I1
sS'de slachtoffers'
p218
I2
sS"collega ' s"
p219
I1
sS'verschrikkelijke'
p220
I1
sS'van de slachtoffers .'
p221
I1
sS'van een aantal van onze'
p222
I1
sS'heeft kunnen constateren'
p223
I1
sS'neemt staande een minuut stilte in acht'
p224
I1
sS'. ik doel'
p225
I2
sS'dat u een goede vakantie heeft gehad'
p226
I2
sS'verschillende lidstaten van'
p227
I1
sS'op de'
p228
I2
sS'u heeft kunnen constateren'
p229
I1
sS'van de slachtoffers . ik doel'
p230
I1
sS'slachtoffers . ik doel'
p231
I1
sS'hoop dat u een goede'
p232
I2
sS'werd onderbroken , te zijn hervat .'
p233
I2
sS'de zitting van het'
p234
I1
sS'. de'
p235
I3
sS'de zitting van het europees parlement'
p236
I1
sS'de burgers van'
p237
I2
sS'goede'
p238
I1
sS'orde stellen'
p239
I1
sS'verschillende lidstaten'
p240
I1
sS'van het europees parlement , die'
p241
I1
sS'en hoop dat'
p242
I1
sS'lidstaten van de unie heeft geteisterd'
p243
I1
sS'dat u'
p244
I6
sS'verklaar'
p245
I1
sS'parlement neemt staande een'
p246
I1
sS'een debat wilt over'
p247
I1
sS'minuut'
p248
I3
sS'van de slachtoffers'
p249
I2
sS'stilte in acht )'
p250
I1
sS'ik'
p251
I6
sS'hervat .'
p252
I1
sS'grote " millenniumbug " uitgebleven'
p253
I2
sS'vrijdag'
p254
I1
sS'parlement , die op vrijdag 17'
p255
I1
sS'ik verklaar de zitting van het'
p256
I1
sS'verklaar de zitting'
p257
I1
sS'onze lidstaten'
p258
I3
sS', te zijn'
p259
I2
sS'een debat wilt'
p260
I1
sS'van de unie'
p261
I1
sS'parlement , die op'
p262
I1
sS'van de unie heeft geteisterd'
p263
I1
sS'burgers'
p264
I1
sS'ik doel hiermee'
p265
I1
sS'de unie heeft geteisterd .'
p266
I1
sS'de slachtoffers . ik doel'
p267
I1
sS'de voorzitter ,'
p268
I1
sS'deze'
p269
I8
sS'een gelukkig nieuwjaar'
p270
I1
sS'verschillende lidstaten van de unie'
p271
I1
sS'de grote'
p272
I1
sS'noodweer dat verschillende'
p273
I1
sS'gelukkig nieuwjaar en hoop'
p274
I1
sS'doel hiermee met name'
p275
I1
sS'lidstaten'
p276
I2
sS'u deze vergaderperiode'
p277
I2
sS'u een goede vakantie heeft gehad'
p278
I2
sS'dat u een'
p279
I1
sS'op vrijdag 17'
p280
I1
sS'een minuut'
p281
I2
sS"van een aantal collega ' s"
p282
I3
sS', die op vrijdag 17 december werd'
p283
I2
sS', te zijn hervat . ik'
p284
I2
sS'hoop dat u een'
p285
I2
sS'hervatting van de'
p286
I1
sS'een'
p287
I11
sS'december werd onderbroken , te'
p288
I1
sS'dat u een goede'
p289
I1
sS'millenniumbug " uitgebleven'
p290
I3
sS'een debat'
p291
I1
sS'minuut stilte staande in acht te nemen'
p292
I1
sS'neemt staande een'
p293
I1
sS'op vrijdag 17 december'
p294
I2
sS'vakantie heeft gehad'
p295
I2
sS'europees'
p296
I1
sS'zitting van het europees'
p297
I1
sS'kunnen constateren'
p298
I1
sS'lidstaten van'
p299
I1
sS'werd onderbroken , te zijn hervat . ik'
p300
I2
sS'van een'
p301
I4
sS', te'
p302
I2
sS'slachtoffers'
p303
I3
sS'nu wil ik graag'
p304
I3
sS', die op vrijdag 17'
p305
I1
sS'het europees'
p306
I1
sS'hoop dat u'
p307
I4
sS'u allen een gelukkig nieuwjaar'
p308
I1
sS'parlement , die op vrijdag 17 december'
p309
I2
sS'neemt staande'
p310
I1
sS'van het europees'
p311
I1
sS'deze minuut'
p312
I6
sS'de slachtoffers . ik'
p313
I1
sS'aangegeven dat u'
p314
I1
sS'u een goede vakantie heeft gehad .'
p315
I1
sS'. ik'
p316
I3
sS'zoals u heeft kunnen constateren'
p317
I3
sS'op'
p318
I4
sS'debat wilt'
p319
I1
sS'. de burgers van'
p320
I3
sS'vakantie heeft gehad .'
p321
I1
sS'van de slachtoffers . ik'
p322
I1
sS'.'
I9
sS'het'
p323
I5
sS'heeft'
p324
I1
sS'van'
p325
I7
sS'goede vakantie heeft gehad .'
p326
I1
sS'17 december werd'
p327
I2
sS'parlement , die'
p328
I1
sS'goede vakantie heeft gehad'
p329
I2
sS'wil ik graag'
p330
I3
sS'wil een motie'
p331
I1
sS', ik wil een motie van orde'
p332
I1
sS', die op'
p333
I1
sS'unie heeft'
p334
I1
sS'zitting'
p335
I1
sS', te zijn hervat'
p336
I2
sS'van de'
p337
I3
sS'minuut stilte in acht'
p338
I1
sS'van een aantal'
p339
I3
sS', die op vrijdag 17 december'
p340
I2
sS'verschrikkelijke natuurrampen getroffen .'
p341
I3
sS'hervatting van de zitting'
p342
I1
sS'dat verschillende'
p343
I1
sS'u allen een gelukkig nieuwjaar en'
p344
I2
sS'natuurrampen getroffen .'
p345
I3
sS'gelukkig nieuwjaar en hoop dat'
p346
I1
sS'ik verklaar de zitting'
p347
I1
sS'de voorzitter , ik wil een motie'
p348
I1
sS'lidstaten van de unie heeft'
p349
I1
sS'hervatting'
p350
I1
sS'17 december'
p351
I2
sS'nu wil'
p352
I1
sS'de voorzitter , ik'
p353
I1
sS'werd onderbroken , te zijn'
p354
I2
sS'verklaar de'
p355
I1
sS'te zijn hervat .'
p356
I1
sS'het europees parlement , die op vrijdag'
p357
I1
sS'een minuut stilte in acht'
p358
I1
sS'een gelukkig nieuwjaar en hoop'
p359
I1
sS'een minuut stilte in acht )'
p360
I1
sS'verschillende'
p361
I1
sS'het parlement'
p362
I1
sS'u heeft kunnen constateren , is de'
p363
I1
sS'u heeft aangegeven'
p364
I1
sS'aangegeven dat'
p365
I1
sS'kunnen constateren , is'
p366
I1
sS'u'
I4
sS'. de burgers van een'
p367
I3
sS'aantal van onze'
p368
I3
sS'ik wil een motie'
p369
I1
sS', is de grote'
p370
I1
s.